ccopy_reg
_reconstructor
p0
(cpandas.core.frame
DataFrame
p1
c__builtin__
object
p2
Ntp3
Rp4
(dp5
S'_metadata'
p6
(lp7
sS'_typ'
p8
S'dataframe'
p9
sS'_data'
p10
g0
(cpandas.core.internals
BlockManager
p11
g2
Ntp12
Rp13
((lp14
cpandas.indexes.base
_new_Index
p15
(cpandas.indexes.base
Index
p16
(dp17
S'data'
p18
cnumpy.core.multiarray
_reconstruct
p19
(cnumpy
ndarray
p20
(I0
tp21
S'b'
p22
tp23
Rp24
(I1
(I124
tp25
cnumpy
dtype
p26
(S'O8'
p27
I0
I1
tp28
Rp29
(I3
S'|'
p30
NNNI-1
I-1
I63
tp31
bI00
(lp32
S'Zip__10002'
p33
aS'Zip__10003'
p34
aS'Zip__10004'
p35
aS'Zip__10005'
p36
aS'Zip__10007'
p37
aS'Zip__10009'
p38
aS'Zip__10010'
p39
aS'Zip__10011'
p40
aS'Zip__10012'
p41
aS'Zip__10013'
p42
aS'Zip__10014'
p43
aS'Zip__10016'
p44
aS'Zip__10017'
p45
aS'Zip__10018'
p46
aS'Zip__10019'
p47
aS'Zip__10021'
p48
aS'Zip__10022'
p49
aS'Zip__10023'
p50
aS'Zip__10024'
p51
aS'Zip__10025'
p52
aS'Zip__10026'
p53
aS'Zip__10027'
p54
aS'Zip__10028'
p55
aS'Zip__10029'
p56
aS'Zip__10030'
p57
aS'Zip__10031'
p58
aS'Zip__10032'
p59
aS'Zip__10033'
p60
aS'Zip__10035'
p61
aS'Zip__10036'
p62
aS'Zip__10038'
p63
aS'Zip__10039'
p64
aS'Zip__10040'
p65
aS'Zip__10065'
p66
aS'Zip__10075'
p67
aS'Zip__10128'
p68
aS'Zip__10301'
p69
aS'Zip__10302'
p70
aS'Zip__10304'
p71
aS'Zip__10306'
p72
aS'Zip__10307'
p73
aS'Zip__10309'
p74
aS'Zip__10312'
p75
aS'Zip__10314'
p76
aS'Zip__10451'
p77
aS'Zip__10452'
p78
aS'Zip__10453'
p79
aS'Zip__10454'
p80
aS'Zip__10455'
p81
aS'Zip__10456'
p82
aS'Zip__10458'
p83
aS'Zip__10459'
p84
aS'Zip__10460'
p85
aS'Zip__10461'
p86
aS'Zip__10462'
p87
aS'Zip__10466'
p88
aS'Zip__10467'
p89
aS'Zip__10468'
p90
aS'Zip__10469'
p91
aS'Zip__10471'
p92
aS'Zip__10472'
p93
aS'Zip__10475'
p94
aS'Zip__11001'
p95
aS'Zip__11101'
p96
aS'Zip__11102'
p97
aS'Zip__11103'
p98
aS'Zip__11105'
p99
aS'Zip__11106'
p100
aS'Zip__11201'
p101
aS'Zip__11203'
p102
aS'Zip__11204'
p103
aS'Zip__11205'
p104
aS'Zip__11206'
p105
aS'Zip__11207'
p106
aS'Zip__11208'
p107
aS'Zip__11209'
p108
aS'Zip__11210'
p109
aS'Zip__11211'
p110
aS'Zip__11212'
p111
aS'Zip__11213'
p112
aS'Zip__11214'
p113
aS'Zip__11215'
p114
aS'Zip__11216'
p115
aS'Zip__11217'
p116
aS'Zip__11218'
p117
aS'Zip__11219'
p118
aS'Zip__11220'
p119
aS'Zip__11221'
p120
aS'Zip__11222'
p121
aS'Zip__11223'
p122
aS'Zip__11224'
p123
aS'Zip__11225'
p124
aS'Zip__11226'
p125
aS'Zip__11229'
p126
aS'Zip__11230'
p127
aS'Zip__11231'
p128
aS'Zip__11232'
p129
aS'Zip__11233'
p130
aS'Zip__11235'
p131
aS'Zip__11237'
p132
aS'Zip__11238'
p133
aS'Zip__11358'
p134
aS'Zip__11361'
p135
aS'Zip__11368'
p136
aS'Zip__11372'
p137
aS'Zip__11373'
p138
aS'Zip__11374'
p139
aS'Zip__11375'
p140
aS'Zip__11377'
p141
aS'Zip__11378'
p142
aS'Zip__11379'
p143
aS'Zip__11385'
p144
aS'Zip__11415'
p145
aS'Zip__11418'
p146
aS'Zip__11421'
p147
aS'Zip__11426'
p148
aS'Zip__11427'
p149
aS'Zip__11429'
p150
aS'Zip__11432'
p151
aS'Zip__11433'
p152
aS'Zip__11434'
p153
aS'Zip__11435'
p154
aS'Zip__11436'
p155
aS'Zip__11694'
p156
atp157
bsS'name'
p158
Nstp159
Rp160
ag15
(cpandas.indexes.numeric
Int64Index
p161
(dp162
g18
g19
(g20
(I0
tp163
g22
tp164
Rp165
(I1
(I1
tp166
g26
(S'i8'
p167
I0
I1
tp168
Rp169
(I3
S'<'
p170
NNNI-1
I-1
I0
tp171
bI00
S'\x00\x00\x00\x00\x00\x00\x00\x00'
p172
tp173
bsg158
Nstp174
Rp175
a(lp176
g19
(g20
(I0
tp177
g22
tp178
Rp179
(I1
(I124
I1
tp180
g26
(S'u1'
p181
I0
I1
tp182
Rp183
(I3
S'|'
p184
NNNI-1
I-1
I0
tp185
bI00
S'\x00\x00\x00\x00\x00\x00\x00\x00\x00\x00\x00\x00\x00\x00\x00\x00\x00\x00\x00\x00\x00\x00\x00\x00\x00\x00\x00\x00\x00\x00\x00\x00\x00\x00\x00\x00\x00\x00\x00\x00\x00\x00\x00\x00\x00\x00\x00\x00\x00\x00\x00\x00\x00\x00\x00\x00\x00\x00\x00\x00\x00\x00\x00\x00\x00\x00\x00\x00\x00\x00\x00\x00\x00\x00\x00\x00\x00\x00\x00\x00\x00\x00\x00\x00\x00\x00\x00\x00\x00\x00\x00\x00\x00\x00\x00\x00\x00\x00\x00\x00\x00\x00\x00\x00\x00\x00\x00\x00\x00\x00\x00\x00\x00\x00\x00\x00\x00\x00\x00\x00\x00\x00\x00\x00'
p186
tp187
ba(lp188
g15
(g16
(dp189
g18
g19
(g20
(I0
tp190
g22
tp191
Rp192
(I1
(I124
tp193
g29
I00
(lp194
g33
ag34
ag35
ag36
ag37
ag38
ag39
ag40
ag41
ag42
ag43
ag44
ag45
ag46
ag47
ag48
ag49
ag50
ag51
ag52
ag53
ag54
ag55
ag56
ag57
ag58
ag59
ag60
ag61
ag62
ag63
ag64
ag65
ag66
ag67
ag68
ag69
ag70
ag71
ag72
ag73
ag74
ag75
ag76
ag77
ag78
ag79
ag80
ag81
ag82
ag83
ag84
ag85
ag86
ag87
ag88
ag89
ag90
ag91
ag92
ag93
ag94
ag95
ag96
ag97
ag98
ag99
ag100
ag101
ag102
ag103
ag104
ag105
ag106
ag107
ag108
ag109
ag110
ag111
ag112
ag113
ag114
ag115
ag116
ag117
ag118
ag119
ag120
ag121
ag122
ag123
ag124
ag125
ag126
ag127
ag128
ag129
ag130
ag131
ag132
ag133
ag134
ag135
ag136
ag137
ag138
ag139
ag140
ag141
ag142
ag143
ag144
ag145
ag146
ag147
ag148
ag149
ag150
ag151
ag152
ag153
ag154
ag155
ag156
atp195
bsg158
Nstp196
Rp197
a(dp198
S'0.14.1'
p199
(dp200
S'axes'
p201
g14
sS'blocks'
p202
(lp203
(dp204
S'mgr_locs'
p205
c__builtin__
slice
p206
(I0
I124
I1
tp207
Rp208
sS'values'
p209
g179
sasstp210
bsb.