(lp0
S'https://www.yelp.com/biz/bateaux-new-york-new-york'
p1
aS'https://www.yelp.com/biz/sweet-buttons-desserts-new-york'
p2
aS'https://www.yelp.com/biz/scarlet-tattoos-brooklyn-2'
p3
aS'https://www.yelp.com/biz/luigis-pizza-brooklyn'
p4
aS'https://www.yelp.com/biz/marshall-stack-new-york'
p5
aS'https://www.yelp.com/biz/gottscheer-hall-ridgewood'
p6
aS'https://www.yelp.com/biz/solace-bar-and-grill-new-york'
p7
aS'https://www.yelp.com/biz/shangri-la-bay-ridge'
p8
aS'https://www.yelp.com/biz/san-loco-brooklyn-3'
p9
aS'https://www.yelp.com/biz/atlantic-grill-new-york-2'
p10
aS'https://www.yelp.com/biz/antler-beer-and-wine-dispensary-new-york'
p11
aS'https://www.yelp.com/biz/st-albans-park-jamaica'
p12
aS'https://www.yelp.com/biz/marani-rego-park-4'
p13
aS'https://www.yelp.com/biz/wolfnights-new-york'
p14
aS'https://www.yelp.com/biz/the-jeffrey-craft-beer-and-bites-new-york'
p15
aS'https://www.yelp.com/biz/stella-di-sicilia-bakery-brooklyn'
p16
aS'https://www.yelp.com/biz/new-hyde-park-animal-hospital-new-hyde-park'
p17
aS'https://www.yelp.com/biz/palmyra-sheepshead-bay'
p18
aS'https://www.yelp.com/biz/the-westbury-inn-brooklyn'
p19
aS'https://www.yelp.com/biz/rosas-pizza-maspeth-2'
p20
aS'https://www.yelp.com/biz/wafels-and-dinges-new-york'
p21
aS'https://www.yelp.com/biz/periyali-new-york'
p22
aS'https://www.yelp.com/biz/pig-heaven-new-york-3'
p23
aS'https://www.yelp.com/biz/tasty-picks-new-york'
p24
aS'https://www.yelp.com/biz/rutland-tire-shop-crown-heights'
p25
aS'https://www.yelp.com/biz/l-albero-dei-gelati-brooklyn-2'
p26
aS'https://www.yelp.com/biz/sweetgreen-new-york-3'
p27
aS'https://www.yelp.com/biz/sweetgreen-new-york-2'
p28
aS'https://www.yelp.com/biz/mark-new-york'
p29
aS'https://www.yelp.com/biz/sweetgreen-new-york-9'
p30
aS'https://www.yelp.com/biz/num-pang-sandwich-shop-new-york-6'
p31
aS'https://www.yelp.com/biz/ch%C3%A2teau-le-woof-astoria-2'
p32
aS'https://www.yelp.com/biz/green-zenphony-rego-park-2'
p33
aS'https://www.yelp.com/biz/kings-fish-and-seafood-market-jamaica'
p34
aS'https://www.yelp.com/biz/myrtle-discount-auto-parts-glendale?search_key=55271'
p35
aS'https://www.yelp.com/biz/sal-restaurant-brooklyn'
p36
aS'https://www.yelp.com/biz/java-joe-brooklyn'
p37
aS'https://www.yelp.com/biz/pure-body-arts-new-york'
p38
aS'https://www.yelp.com/biz/rjc-familys-cafe-bronx-2'
p39
aS'https://www.yelp.com/biz/pats-sports-bar-middle-village'
p40
aS'https://www.yelp.com/biz/st-marks-market-new-york'
p41
aS'https://www.yelp.com/biz/bar-lun%C3%A0tico-brooklyn-2'
p42
aS'https://www.yelp.com/biz/l-encanto-d-lola-new-york'
p43
aS'https://www.yelp.com/biz/almond-new-york'
p44
aS'https://www.yelp.com/biz/queen-italian-restaurant-brooklyn'
p45
aS'https://www.yelp.com/biz/mimi-new-york'
p46
aS'https://www.yelp.com/biz/ebe-ye-yie-bronx'
p47
aS'https://www.yelp.com/biz/room-55-glendale'
p48
aS'https://www.yelp.com/biz/live-bait-new-york'
p49
aS'https://www.yelp.com/biz/prontito-elmhurst'
p50
aS'https://www.yelp.com/biz/mccaffrey-and-burke-bar-and-grill-astoria'
p51
aS'https://www.yelp.com/biz/la-ripaille-new-york'
p52
aS'https://www.yelp.com/biz/roma-pizza-and-restaurant-brooklyn'
p53
aS'https://www.yelp.com/biz/sal-and-pauls-pizzeria-brooklyn'
p54
aS'https://www.yelp.com/biz/piz-zetta-brooklyn-2'
p55
aS'https://www.yelp.com/biz/hot-kitchen-new-york'
p56
aS'https://www.yelp.com/biz/spice-kitchen-maspeth'
p57
aS'https://www.yelp.com/biz/the-soup-bowl-of-park-slope-brooklyn'
p58
aS'https://www.yelp.com/biz/grito-mexican-grill-new-york'
p59
aS'https://www.yelp.com/biz/nubian-kinks-brooklyn'
p60
aS'https://www.yelp.com/biz/anitas-roti-shop-jamaica'
p61
aS'https://www.yelp.com/biz/bens-best-rego-park-2'
p62
aS'https://www.yelp.com/biz/ricos-chicken-middle-village'
p63
aS'https://www.yelp.com/biz/pronto-pizza-staten-island-4'
p64
aS'https://www.yelp.com/biz/jerome-pizza-bronx'
p65
aS'https://www.yelp.com/biz/nu-nu-car-and-ambulatory-svce-jamaica'
p66
aS'https://www.yelp.com/biz/caravan-chicken-astoria'
p67
aS'https://www.yelp.com/biz/las-margaritas-brooklyn-2'
p68
aS'https://www.yelp.com/biz/beyoglu-new-york'
p69
aS'https://www.yelp.com/biz/choices-womens-medical-center-jamaica-2'
p70
aS'https://www.yelp.com/biz/lite-bites-brooklyn-2'
p71
aS'https://www.yelp.com/biz/bottino-take-out-new-york'
p72
aS'https://www.yelp.com/biz/panera-bread-staten-island-2'
p73
aS'https://www.yelp.com/biz/cousin-johns-cafe-and-bakery-brooklyn'
p74
aS'https://www.yelp.com/biz/b-cup-caf%C3%A9-new-york-5?search_key=65743'
p75
aS'https://www.yelp.com/biz/ace-cleaners-bronx'
p76
aS'https://www.yelp.com/biz/samaria-pizza-astoria-2'
p77
aS'https://www.yelp.com/biz/s-and-s-calabro-pizzeria-astoria'
p78
aS'https://www.yelp.com/biz/b-side-new-york?search_key=65743'
p79
aS'https://www.yelp.com/biz/bareburger-new-york-20'
p80
aS'https://www.yelp.com/biz/nova-asian-bistro-new-hyde-park'
p81
aS'https://www.yelp.com/biz/third-square-food-bronx'
p82
aS'https://www.yelp.com/biz/ravagh-persian-grill-new-york-3'
p83
aS'https://www.yelp.com/biz/ahimsa-new-york'
p84
aS'https://www.yelp.com/biz/russ-and-daughters-cafe-new-york-5'
p85
aS'https://www.yelp.com/biz/wildair-new-york'
p86
aS'https://www.yelp.com/biz/marconis-pizza-and-restaurant-bronx'
p87
aS'https://www.yelp.com/biz/strangeways-coffee-brooklyn'
p88
aS'https://www.yelp.com/biz/gradys-cold-brew-new-york'
p89
aS'https://www.yelp.com/biz/mr-wonton-brooklyn'
p90
aS'https://www.yelp.com/biz/beijing-dumpling-house-jamaica'
p91
aS'https://www.yelp.com/biz/cuba-new-york'
p92
aS'https://www.yelp.com/biz/ho-may-kitchen-brooklyn'
p93
aS'https://www.yelp.com/biz/cheeburger-cheeburger-staten-island'
p94
aS'https://www.yelp.com/biz/sunnys-bar-brooklyn'
p95
aS'https://www.yelp.com/biz/variety-pet-meds-jamaica'
p96
aS'https://www.yelp.com/biz/sea-witch-brooklyn-2'
p97
aS'https://www.yelp.com/biz/bread-love-bedford-stuyvesant'
p98
aS'https://www.yelp.com/biz/doctors-cave-cafe-brooklyn'
p99
aS'https://www.yelp.com/biz/bp-cuts-jamaica'
p100
aS'https://www.yelp.com/biz/hope-and-anchor-brooklyn'
p101
aS'https://www.yelp.com/biz/everyman-espresso-new-york-2'
p102
aS'https://www.yelp.com/biz/natural-gourmet-institute-new-york'
p103
aS'https://www.yelp.com/biz/grace-pizza-glendale?search_key=55271'
p104
aS'https://www.yelp.com/biz/el-castillo-de-jagua-brooklyn-3'
p105
aS'https://www.yelp.com/biz/babys-all-right-brooklyn'
p106
aS'https://www.yelp.com/biz/coffee-project-new-york-new-york'
p107
aS'https://www.yelp.com/biz/eagle-trading-brooklyn'
p108
aS'https://www.yelp.com/biz/botanic-lab-new-york'
p109
aS'https://www.yelp.com/biz/barbuto-new-york'
p110
aS'https://www.yelp.com/biz/ako-brooklyn-3'
p111
aS'https://www.yelp.com/biz/bus-stop-cafe-new-york'
p112
aS'https://www.yelp.com/biz/rocky-sullivans-brooklyn'
p113
aS'https://www.yelp.com/biz/rego-smoked-fish-company-inc-middle-village'
p114
aS'https://www.yelp.com/biz/new-sweet-rice-kitchen-glendale'
p115
aS'https://www.yelp.com/biz/rue-b-new-york?search_key=65743'
p116
aS'https://www.yelp.com/biz/la-maison-du-croque-monsieur-new-york'
p117
aS'https://www.yelp.com/biz/minus-celsius-ice-cream-new-york'
p118
aS'https://www.yelp.com/biz/queen-of-tacos-bronx'
p119
aS'https://www.yelp.com/biz/b-cafe-east-new-york'
p120
aS'https://www.yelp.com/biz/don-pedro-brooklyn'
p121
aS'https://www.yelp.com/biz/the-ribbon-new-york'
p122
aS'https://www.yelp.com/biz/tsob-tsobe-brooklyn'
p123
aS'https://www.yelp.com/biz/spirit-of-new-york-new-york-3'
p124
aS'https://www.yelp.com/biz/island-cuisine-brooklyn'
p125
aS'https://www.yelp.com/biz/mexico-2000-brooklyn'
p126
aS'https://www.yelp.com/biz/squar-pix-brooklyn'
p127
aS'https://www.yelp.com/biz/the-brooklyn-tree-brooklyn-2'
p128
aS'https://www.yelp.com/biz/arepas-grill-astoria'
p129
aS'https://www.yelp.com/biz/ella-kitchen-and-bar-new-york-2'
p130
aS'https://www.yelp.com/biz/la-fortuna-restaurant-bronx'
p131
aS'https://www.yelp.com/biz/four-and-twenty-blackbirds-brooklyn'
p132
aS'https://www.yelp.com/biz/santa-fe-grill-brooklyn'
p133
aS'https://www.yelp.com/biz/banjara-indian-cuisine-new-york-2'
p134
aS'https://www.yelp.com/biz/pao-de-queijo-astoria-4'
p135
aS'https://www.yelp.com/biz/tu-casa-restaurant-astoria'
p136
aS'https://www.yelp.com/biz/treadwell-park-new-york'
p137
aS'https://www.yelp.com/biz/the-inkan-restaurant-and-pisco-bar-garden-city-park-2'
p138
aS'https://www.yelp.com/biz/blue-beach-nails-queens'
p139
aS'https://www.yelp.com/biz/y-cafe-new-york?search_key=65743'
p140
aS'https://www.yelp.com/biz/puerto-plata-restaurant-jamaica-2'
p141
aS'https://www.yelp.com/biz/anthonys-butcher-and-deli-brooklyn'
p142
aS'https://www.yelp.com/biz/mayahuel-new-york'
p143
aS'https://www.yelp.com/biz/homemade-taqueria-maspeth'
p144
aS'https://www.yelp.com/biz/louie-and-chan-new-york'
p145
aS'https://www.yelp.com/biz/russ-and-daughters-new-york'
p146
aS'https://www.yelp.com/biz/toyo-japanese-cuisine-queens'
p147
aS'https://www.yelp.com/biz/cheese-grille-new-york'
p148
aS'https://www.yelp.com/biz/villa-castillo-restaurant-brooklyn'
p149
aS'https://www.yelp.com/biz/fletchers-brooklyn-barbecue-brooklyn'
p150
aS'https://www.yelp.com/biz/carlos-pizza-middle-village'
p151
aS'https://www.yelp.com/biz/babyland-daycare-queens'
p152
aS'https://www.yelp.com/biz/shelby-semel-dog-training-new-york'
p153
aS'https://www.yelp.com/biz/halalish-brooklyn'
p154
aS'https://www.yelp.com/biz/boqueria-new-york-3'
p155
aS'https://www.yelp.com/biz/juanchis-barber-shop-brooklyn'
p156
aS'https://www.yelp.com/biz/proline-car-stereo-brooklyn-4'
p157
aS'https://www.yelp.com/biz/taksim-square-2-brooklyn-2'
p158
aS'https://www.yelp.com/biz/ital-kitchen-brooklyn-2'
p159
aS'https://www.yelp.com/biz/yesterdays-diner-new-hyde-park'
p160
aS'https://www.yelp.com/biz/the-mudtruck-new-york-2'
p161
aS'https://www.yelp.com/biz/sake-sushi-flushing'
p162
aS'https://www.yelp.com/biz/b-good-brooklyn-3'
p163
aS'https://www.yelp.com/biz/bramasole-italian-restaurant-new-hyde-park'
p164
aS'https://www.yelp.com/biz/joeys-pizza-maspeth'
p165
aS'https://www.yelp.com/biz/achilles-heel-brooklyn'
p166
aS'https://www.yelp.com/biz/miusa-wine-bar-brooklyn'
p167
aS'https://www.yelp.com/biz/motorino-new-york-3'
p168
aS'https://www.yelp.com/biz/georges-andr%C3%A9-vintage-caf%C3%A9-brooklyn-2'
p169
aS'https://www.yelp.com/biz/beach-bagel-rockaway-park'
p170
aS'https://www.yelp.com/biz/jalapeno-king-brooklyn'
p171
aS'https://www.yelp.com/biz/shaggy-hair-studio-new-york'
p172
aS'https://www.yelp.com/biz/riposo-72-new-york-8'
p173
aS'https://www.yelp.com/biz/island-burger-brooklyn-2'
p174
aS'https://www.yelp.com/biz/holiday-beverage-staten-island'
p175
aS'https://www.yelp.com/biz/kazza-coffee-and-wine-bar-new-york-3'
p176
aS'https://www.yelp.com/biz/ovest-pizzoteca-new-york'
p177
aS'https://www.yelp.com/biz/ginos-pizza-new-hyde-park'
p178
aS'https://www.yelp.com/biz/ha-noi-vietnamese-kitchen-brooklyn'
p179
aS'https://www.yelp.com/biz/hummus-market-brooklyn'
p180
aS'https://www.yelp.com/biz/g-free-nyc-new-york-2'
p181
aS'https://www.yelp.com/biz/il-mattone-new-york-3'
p182
aS'https://www.yelp.com/biz/bon-appetit-rockaway-park'
p183
aS'https://www.yelp.com/biz/uncorked-bar-and-grill-new-york'
p184
aS'https://www.yelp.com/biz/lukes-lobster-new-york-3'
p185
aS'https://www.yelp.com/biz/family-pizza-brooklyn'
p186
aS'https://www.yelp.com/biz/scalino-brooklyn-2'
p187
aS'https://www.yelp.com/biz/rays-food-and-walking-tours-brooklyn'
p188
aS'https://www.yelp.com/biz/bushwick-pita-palace-brooklyn'
p189
aS'https://www.yelp.com/biz/ottos-tacos-new-york'
p190
aS'https://www.yelp.com/biz/polonica-restaurant-brooklyn'
p191
aS'https://www.yelp.com/biz/yakiniku-west-new-york'
p192
aS'https://www.yelp.com/biz/aldea-new-york'
p193
aS'https://www.yelp.com/biz/priceless-pet-services-new-york-2'
p194
aS'https://www.yelp.com/biz/barney-greengrass-new-york'
p195
aS'https://www.yelp.com/biz/basta-pasta-new-york'
p196
aS'https://www.yelp.com/biz/kefi-new-york-2'
p197
aS'https://www.yelp.com/biz/3rd-generation-wallpaper-company-brooklyn'
p198
aS'https://www.yelp.com/biz/service-station-new-york'
p199
aS'https://www.yelp.com/biz/portalia-astoria'
p200
aS'https://www.yelp.com/biz/dvir-salon-brooklyn-2'
p201
aS'https://www.yelp.com/biz/bellas-place-restaurant-jamaica'
p202
aS'https://www.yelp.com/biz/seasoned-vegan-new-york-2'
p203
aS'https://www.yelp.com/biz/connies-deli-bronx'
p204
aS'https://www.yelp.com/biz/doris-brooklyn'
p205
aS'https://www.yelp.com/biz/jamaican-americans-island-blend-restaurant-and-lounge-queens'
p206
aS'https://www.yelp.com/biz/cheburechnaya-rego-park'
p207
aS'https://www.yelp.com/biz/rowes-restaurant-brooklyn'
p208
aS'https://www.yelp.com/biz/the-keep-ridgewood'
p209
aS'https://www.yelp.com/biz/elegant-barber-shop-brooklyn'
p210
aS'https://www.yelp.com/biz/kings-theatre-brooklyn'
p211
aS'https://www.yelp.com/biz/le-french-diner-new-york'
p212
aS'https://www.yelp.com/biz/monte-carlo-nyc-new-york'
p213
aS'https://www.yelp.com/biz/the-inn-at-new-hyde-park-new-hyde-park'
p214
aS'https://www.yelp.com/biz/enterprise-car-sales-east-elmhurst'
p215
aS'https://www.yelp.com/biz/wongs-garden-new-hyde-park'
p216
aS'https://www.yelp.com/biz/happy-dragon-bronx-2'
p217
aS'https://www.yelp.com/biz/line-bagels-brooklyn'
p218
aS'https://www.yelp.com/biz/chase-taste-buffet-jamaica-2'
p219
aS'https://www.yelp.com/biz/gallitos-kitchen-brooklyn'
p220
aS'https://www.yelp.com/biz/surya-new-york-3'
p221
aS'https://www.yelp.com/biz/starbucks-astoria-5'
p222
aS'https://www.yelp.com/biz/angels-share-new-york'
p223
aS'https://www.yelp.com/biz/kawah-chinese-restaurant-bronx'
p224
aS'https://www.yelp.com/biz/mokja-astoria'
p225
aS'https://www.yelp.com/biz/anthis-greek-food-new-york'
p226
aS'https://www.yelp.com/biz/the-family-store-brooklyn-3'
p227
aS'https://www.yelp.com/biz/julianas-pizza-brooklyn-5'
p228
aS'https://www.yelp.com/biz/gordon-bennett-brooklyn'
p229
aS'https://www.yelp.com/biz/whole-foods-market-new-york-10'
p230
aS'https://www.yelp.com/biz/muffler-master-brooklyn'
p231
aS'https://www.yelp.com/biz/188-bakery-cuchifritos-bronx'
p232
aS'https://www.yelp.com/biz/parkside-brooklyn'
p233
aS'https://www.yelp.com/biz/josh-auto-repair-brooklyn'
p234
aS'https://www.yelp.com/biz/salon-pigmentos-manhattan?search_key=65743'
p235
aS'https://www.yelp.com/biz/red-chili-indian-cafe-new-york'
p236
aS'https://www.yelp.com/biz/olly-oxen-free-vintage-brooklyn'
p237
aS'https://www.yelp.com/biz/polish-american-market-and-deli-new-hyde-park'
p238
aS'https://www.yelp.com/biz/anthonys-professional-tv-mounting-service-ridgewood-queens'
p239
aS'https://www.yelp.com/biz/bosna-express-ridgewood'
p240
aS'https://www.yelp.com/biz/the-cactus-brooklyn'
p241
aS'https://www.yelp.com/biz/taqueria-kermes-ridgewood'
p242
aS'https://www.yelp.com/biz/empanadas-monumental-manhattan'
p243
aS'https://www.yelp.com/biz/el-conde-restaurant-new-york'
p244
aS'https://www.yelp.com/biz/la-cabana-rodriguez-rodriguez-fried-chicken-brooklyn'
p245
aS'https://www.yelp.com/biz/doaba-deli-new-york-2'
p246
aS'https://www.yelp.com/biz/bunny-deli-new-york'
p247
aS'https://www.yelp.com/biz/pergola-new-york-4'
p248
aS'https://www.yelp.com/biz/ryders-joe-deli-new-hyde-park'
p249
aS'https://www.yelp.com/biz/harlem-pizza-co-new-york'
p250
aS'https://www.yelp.com/biz/rego-bagels-rego-park'
p251
aS'https://www.yelp.com/biz/little-caesars-queens-village'
p252
aS'https://www.yelp.com/biz/the-bush-doctor-juice-bar-brooklyn'
p253
aS'https://www.yelp.com/biz/fishtag-new-york'
p254
aS'https://www.yelp.com/biz/tiella-new-york'
p255
aS'https://www.yelp.com/biz/bottlerocket-wine-and-spirit-new-york'
p256
aS'https://www.yelp.com/biz/howard-a-silver-dds-brooklyn'
p257
aS'https://www.yelp.com/biz/las-tias-cafe-bakery-middle-village'
p258
aS'https://www.yelp.com/biz/merengue-new-hyde-park'
p259
aS'https://www.yelp.com/biz/asea-modern-asian-bistro-brooklyn'
p260
aS'https://www.yelp.com/biz/sea-and-sea-manhattan'
p261
aS'https://www.yelp.com/biz/gyro-king-bronx'
p262
aS'https://www.yelp.com/biz/chellise-michael-photography-brooklyn-2'
p263
aS'https://www.yelp.com/biz/blue-in-green-new-york'
p264
aS'https://www.yelp.com/biz/peaches-brooklyn'
p265
aS'https://www.yelp.com/biz/lukes-bar-and-grill-new-york-2'
p266
aS'https://www.yelp.com/biz/saturdays-surf-nyc-coffee-bar-new-york'
p267
aS'https://www.yelp.com/biz/sake-bar-decibel-new-york'
p268
aS'https://www.yelp.com/biz/bedford-cafe-and-restaurant-bronx'
p269
aS'https://www.yelp.com/biz/strip-house-new-york-5'
p270
aS'https://www.yelp.com/biz/pho-grand-new-york-2'
p271
aS'https://www.yelp.com/biz/kimchi-grill-brooklyn-8'
p272
aS'https://www.yelp.com/biz/taqueria-los-jarritos-new-york'
p273
aS'https://www.yelp.com/biz/the-clocktower-new-york'
p274
aS'https://www.yelp.com/biz/frenchys-food-truck-brooklyn'
p275
aS'https://www.yelp.com/biz/amber-upper-east-new-york-2'
p276
aS'https://www.yelp.com/biz/forrest-point-brooklyn'
p277
aS'https://www.yelp.com/biz/kiku-sushi-staten-island'
p278
aS'https://www.yelp.com/biz/the-good-fork-brooklyn'
p279
aS'https://www.yelp.com/biz/chef-wang-new-hyde-park-3'
p280
aS'https://www.yelp.com/biz/van-brunt-stillhouse-new-york'
p281
aS'https://www.yelp.com/biz/3e-taste-of-thai-astoria'
p282
aS'https://www.yelp.com/biz/wing-cheong-restaurant-brooklyn'
p283
aS'https://www.yelp.com/biz/cafe-katja-new-york'
p284
aS'https://www.yelp.com/biz/la-caridad-78-new-york'
p285
aS'https://www.yelp.com/biz/tasty-deli-brooklyn'
p286
aS'https://www.yelp.com/biz/lucida-movers-brooklyn-2'
p287
aS'https://www.yelp.com/biz/the-halcyon-gourmet-brooklyn'
p288
aS'https://www.yelp.com/biz/peacefood-cafe-downtown-new-york'
p289
aS'https://www.yelp.com/biz/peppinos-brick-oven-pizza-and-restaurant-brooklyn-3'
p290
aS'https://www.yelp.com/biz/bronx-ny-pizza-incorporated-bronx'
p291
aS'https://www.yelp.com/biz/capitoline-grounds-brooklyn-2'
p292
aS'https://www.yelp.com/biz/hot-mini-cakes-new-york'
p293
aS'https://www.yelp.com/biz/tienda-guatemalteca-jamaica'
p294
aS'https://www.yelp.com/biz/mamo-restaurant-new-york'
p295
aS'https://www.yelp.com/biz/michael-and-pings-modern-chinese-take-out-brooklyn'
p296
aS'https://www.yelp.com/biz/corato-pizza-ii-ridgewood'
p297
aS'https://www.yelp.com/biz/new-ranch-restaurant-bronx'
p298
aS'https://www.yelp.com/biz/barrio-chino-new-york'
p299
aS'https://www.yelp.com/biz/osteria-morini-new-york'
p300
aS'https://www.yelp.com/biz/ideal-food-market-jamaica'
p301
aS'https://www.yelp.com/biz/hogshead-tavern-new-york-2'
p302
aS'https://www.yelp.com/biz/warique-restaurant-astoria-2'
p303
aS'https://www.yelp.com/biz/louis-armstrong-house-museum-corona'
p304
aS'https://www.yelp.com/biz/raines-law-room-new-york'
p305
aS'https://www.yelp.com/biz/breezy-dogs-shakes-and-more-rockaway-park'
p306
aS'https://www.yelp.com/biz/red-compass-new-york'
p307
aS'https://www.yelp.com/biz/lindas-rib-kage-bedford-stuyvesant'
p308
aS'https://www.yelp.com/biz/park-delicatessen-new-hyde-park'
p309
aS'https://www.yelp.com/biz/joe-coffee-new-york-9'
p310
aS'https://www.yelp.com/biz/natural-tofu-restaurant-sunnyside'
p311
aS'https://www.yelp.com/biz/the-high-line-new-york'
p312
aS'https://www.yelp.com/biz/new-win-way-restaurant-brooklyn'
p313
aS'https://www.yelp.com/biz/king-of-tandoor-brooklyn'
p314
aS'https://www.yelp.com/biz/okinii-new-york'
p315
aS'https://www.yelp.com/biz/good-eats-diner-maspeth'
p316
aS'https://www.yelp.com/biz/cafe-noi-new-york'
p317
aS'https://www.yelp.com/biz/giovannis-trattoria-staten-island'
p318
aS'https://www.yelp.com/biz/el-fogon-costeno-corp-corona'
p319
aS'https://www.yelp.com/biz/99-favor-taste-new-york-3'
p320
aS'https://www.yelp.com/biz/zum-stammtisch-glendale?search_key=55271'
p321
aS'https://www.yelp.com/biz/evil-and-love-tattoo-brooklyn'
p322
aS'https://www.yelp.com/biz/the-mermaid-inn-new-york'
p323
aS'https://www.yelp.com/biz/boqueria-new-york'
p324
aS'https://www.yelp.com/biz/glorietta-baldy-brooklyn'
p325
aS'https://www.yelp.com/biz/el-grill-restaurant-and-bar-astoria'
p326
aS'https://www.yelp.com/biz/peculier-pub-new-york'
p327
aS'https://www.yelp.com/biz/contra-new-york'
p328
aS'https://www.yelp.com/biz/dazies-sunnyside'
p329
aS'https://www.yelp.com/biz/the-brothers-cafe-sunnyside'
p330
aS'https://www.yelp.com/biz/z-two-restaurant-diner-and-lounge-staten-island'
p331
aS'https://www.yelp.com/biz/taj-mahal-brooklyn'
p332
aS'https://www.yelp.com/biz/mavis-discount-tire-new-hyde-park-4'
p333
aS'https://www.yelp.com/biz/s-wan-cafe-new-york-2'
p334
aS'https://www.yelp.com/biz/sweetgreen-new-york-17'
p335
aS'https://www.yelp.com/biz/buttermilk-bakeshop-brooklyn'
p336
aS'https://www.yelp.com/biz/pt-restaurant-brooklyn'
p337
aS'https://www.yelp.com/biz/jessis-coffee-shop-brooklyn'
p338
aS'https://www.yelp.com/biz/isabellas-italian-ices-and-ice-cream-maspeth'
p339
aS'https://www.yelp.com/biz/jahlookova-bronx-west-bronx'
p340
aS'https://www.yelp.com/biz/brighteye-and-shilling-brooklyn'
p341
aS'https://www.yelp.com/biz/human-head-records-brooklyn'
p342
aS'https://www.yelp.com/biz/red-hook-bait-and-tackle-brooklyn'
p343
aS'https://www.yelp.com/biz/kabob-shack-brooklyn'
p344
aS'https://www.yelp.com/biz/bistro-vendome-new-york'
p345
aS'https://www.yelp.com/biz/mighty-quinns-barbeque-new-york'
p346
aS'https://www.yelp.com/biz/spritzenhaus-brooklyn'
p347
aS'https://www.yelp.com/biz/sort-of-wine-bar-williamsburg'
p348
aS'https://www.yelp.com/biz/court-street-grocers-hero-shop-brooklyn'
p349
aS'https://www.yelp.com/biz/indian-tanpura-new-york-2'
p350
aS'https://www.yelp.com/biz/sakura-brooklyn-5'
p351
aS'https://www.yelp.com/biz/fine-fare-supermarket-jamaica-2'
p352
aS'https://www.yelp.com/biz/gotham-bar-and-grill-new-york'
p353
aS'https://www.yelp.com/biz/r-and-d-tattooing-ridgewood'
p354
aS'https://www.yelp.com/biz/kellys-coffee-shop-jamaica'
p355
aS'https://www.yelp.com/biz/starbucks-new-york-196'
p356
aS'https://www.yelp.com/biz/jade-food-center-claremont'
p357
aS'https://www.yelp.com/biz/mateus-bar-and-restaurant-queens-village'
p358
aS'https://www.yelp.com/biz/king-of-falafel-and-shawarma-restaurant-astoria'
p359
aS'https://www.yelp.com/biz/due-new-york'
p360
aS'https://www.yelp.com/biz/ninja-new-york-new-york'
p361
aS'https://www.yelp.com/biz/avalon-auto-school-middle-village'
p362
aS'https://www.yelp.com/biz/the-avenue-restaurant-glendale?search_key=55271'
p363
aS'https://www.yelp.com/biz/zio-ristorante-new-york'
p364
aS'https://www.yelp.com/biz/pro-audio-repair-brooklyn'
p365
aS'https://www.yelp.com/biz/saiguette-new-york'
p366
aS'https://www.yelp.com/biz/kulu-desserts-elmhurst'
p367
aS'https://www.yelp.com/biz/court-street-grocers-laguardia-place-new-york'
p368
aS'https://www.yelp.com/biz/chef-eddie-gs-kitchen-new-york-2'
p369
aS'https://www.yelp.com/biz/sacred-tattoo-nyc-new-york'
p370
aS'https://www.yelp.com/biz/russos-mozzarella-and-pasta-brooklyn'
p371
aS'https://www.yelp.com/biz/dram-brooklyn-2'
p372
aS'https://www.yelp.com/biz/obic%C3%A0-mozzarella-bar-pizza-e-cucina-new-york-3'
p373
aS'https://www.yelp.com/biz/khe-yo-new-york'
p374
aS'https://www.yelp.com/biz/christ-tabernacle-church-glendale'
p375
aS'https://www.yelp.com/biz/good-enough-to-eat-new-york'
p376
aS'https://www.yelp.com/biz/marisco-centro-new-york'
p377
aS'https://www.yelp.com/biz/tropix-bar-and-lounge-rego-park'
p378
aS'https://www.yelp.com/biz/senses-new-york-salon-and-spa-new-york'
p379
aS'https://www.yelp.com/biz/villa-mosconi-new-york'
p380
aS'https://www.yelp.com/biz/the-gate-brooklyn'
p381
aS'https://www.yelp.com/biz/bella-caracas-cafe-middle-village'
p382
aS'https://www.yelp.com/biz/happy-bones-nyc-new-york'
p383
aS'https://www.yelp.com/biz/joes-restaurant-ridgewood-2'
p384
aS'https://www.yelp.com/biz/santa-barbara-deli-corp-manhattan?search_key=65743'
p385
aS'https://www.yelp.com/biz/top-notch-auto-repair-brooklyn'
p386
aS'https://www.yelp.com/biz/pizza-cucina-of-ridgewood-ridgewood-4'
p387
aS'https://www.yelp.com/biz/the-greek-place-new-hyde-park-4'
p388
aS'https://www.yelp.com/biz/jack-the-horse-tavern-brooklyn'
p389
aS'https://www.yelp.com/biz/cafe-los-arcos-brooklyn'
p390
aS'https://www.yelp.com/biz/risotteria-melotti-new-york-2'
p391
aS'https://www.yelp.com/biz/on-14th-street-bar-and-restaurant-queens'
p392
aS'https://www.yelp.com/biz/house-pizza-bronx'
p393
aS'https://www.yelp.com/biz/yvelisse-salon-jamaica'
p394
aS'https://www.yelp.com/biz/thai-villa-new-york-2'
p395
aS'https://www.yelp.com/biz/quagliata-brothers-new-york'
p396
aS'https://www.yelp.com/biz/golden-krust-bakery-brooklyn-2'
p397
aS'https://www.yelp.com/biz/fordham-fried-seafood-and-chicken-bronx'
p398
aS'https://www.yelp.com/biz/the-grey-dog-new-york-8'
p399
aS'https://www.yelp.com/biz/new-hyde-bark-dog-grooming-new-hyde-park'
p400
aS'https://www.yelp.com/biz/puerto-viejo-brooklyn'
p401
aS'https://www.yelp.com/biz/c-and-j-jamaican-restaurant-and-bakery-brooklyn'
p402
aS'https://www.yelp.com/biz/mido-new-york'
p403
aS'https://www.yelp.com/biz/kanan-indian-restaurant-brooklyn'
p404
aS'https://www.yelp.com/biz/inside-out-exterminating-new-hyde-park-5'
p405
aS'https://www.yelp.com/biz/bedford-barbers-new-york-6'
p406
aS'https://www.yelp.com/biz/queens-laser-and-electrolysis-hair-removal-elmhurst-2'
p407
aS'https://www.yelp.com/biz/the-moonlight-mile-brooklyn'
p408
aS'https://www.yelp.com/biz/tastee-corner-astoria-2'
p409
aS'https://www.yelp.com/biz/new-star-coffee-and-deli-bronx'
p410
aS'https://www.yelp.com/biz/bar-tano-brooklyn'
p411
aS'https://www.yelp.com/biz/big-johns-pizza-and-pasta-queens-village'
p412
aS'https://www.yelp.com/biz/cafe-energy-jamaica'
p413
aS'https://www.yelp.com/biz/parkside-chemists-brooklyn'
p414
aS'https://www.yelp.com/biz/sand-tax-and-accounting-queens-2'
p415
aS'https://www.yelp.com/biz/surf-and-swirl-self-serve-frozen-yogurt-rockaway-park'
p416
aS'https://www.yelp.com/biz/originals-soldier-new-york'
p417
aS'https://www.yelp.com/biz/areperia-arepa-lady-jackson-heights'
p418
aS'https://www.yelp.com/biz/nostro-ristorante-brooklyn'
p419
aS'https://www.yelp.com/biz/rancho-mofongo-corona'
p420
aS'https://www.yelp.com/biz/le-pain-quotidien-new-york-125'
p421
aS'https://www.yelp.com/biz/la-esquina-del-camaron-mexicano-jackson-heights'
p422
aS'https://www.yelp.com/biz/alameda-brooklyn'
p423
aS'https://www.yelp.com/biz/dimitris-hair-design-astoria'
p424
aS'https://www.yelp.com/biz/kondo-astoria'
p425
aS'https://www.yelp.com/biz/pouring-ribbons-new-york?search_key=65743'
p426
aS'https://www.yelp.com/biz/sugar-mutts-rescue-brooklyn'
p427
aS'https://www.yelp.com/biz/pocion-new-york-6'
p428
aS'https://www.yelp.com/biz/campania-eltingville'
p429
aS'https://www.yelp.com/biz/tropical-jerk-queens-village'
p430
aS'https://www.yelp.com/biz/mille-feuille-bakery-new-york-3'
p431
aS'https://www.yelp.com/biz/haveli-restaurant-new-york'
p432
aS'https://www.yelp.com/biz/blue-ribbon-sushi-izakaya-new-york'
p433
aS'https://www.yelp.com/biz/mexican-apple-b-b-q-ridgewood'
p434
aS'https://www.yelp.com/biz/el-porron-new-york'
p435
aS'https://www.yelp.com/biz/grimaldis-brooklyn-4'
p436
aS'https://www.yelp.com/biz/the-new-people-kitchen-brooklyn'
p437
aS'https://www.yelp.com/biz/dig-inn-new-york-19'
p438
aS'https://www.yelp.com/biz/sakura-iv-glendale'
p439
aS'https://www.yelp.com/biz/corner-style-jamaican-and-american-bronx'
p440
aS'https://www.yelp.com/biz/kaffe-1668-new-york-3'
p441
aS'https://www.yelp.com/biz/lilac-natural-nail-and-spa-new-york-2'
p442
aS'https://www.yelp.com/biz/las-maravillas-de-mexico-restaurant-bronx'
p443
aS'https://www.yelp.com/biz/twelfth-night-photography-new-hyde-park'
p444
aS'https://www.yelp.com/biz/home-deli-and-catering-glendale'
p445
aS'https://www.yelp.com/biz/tia-pol-new-york'
p446
aS'https://www.yelp.com/biz/gallow-green-new-york'
p447
aS'https://www.yelp.com/biz/rochdale-village-jamaica-2'
p448
aS'https://www.yelp.com/biz/the-door-jamaica'
p449
aS'https://www.yelp.com/biz/macao-trading-new-york'
p450
aS'https://www.yelp.com/biz/home-made-brooklyn'
p451
aS'https://www.yelp.com/biz/national-restaurant-and-coffee-shop-bronx'
p452
aS'https://www.yelp.com/biz/crown-fried-chicken-brooklyn-29'
p453
aS'https://www.yelp.com/biz/dragon-restaurant-bronx-2'
p454
aS'https://www.yelp.com/biz/china-express-brooklyn-4'
p455
aS'https://www.yelp.com/biz/sushi-seki-new-york-5'
p456
aS'https://www.yelp.com/biz/platz-true-value-hardware-ridgewood'
p457
aS'https://www.yelp.com/biz/taste-of-persia-nyc-new-york-2'
p458
aS'https://www.yelp.com/biz/ritzy-glitzy-girlz-club-new-hyde-park'
p459
aS'https://www.yelp.com/biz/ha-bo-chinese-kitchen-queens-village'
p460
aS'https://www.yelp.com/biz/prohibition-new-york'
p461
aS'https://www.yelp.com/biz/the-malt-house-new-york'
p462
aS'https://www.yelp.com/biz/bethesda-terrace-new-york-2'
p463
aS'https://www.yelp.com/biz/bespoke-kitchen-new-york'
p464
aS'https://www.yelp.com/biz/the-nomad-restaurant-new-york'
p465
aS'https://www.yelp.com/biz/blossom-on-columbus-new-york'
p466
aS'https://www.yelp.com/biz/butcher-block-sunnyside'
p467
aS'https://www.yelp.com/biz/fort-defiance-brooklyn'
p468
aS'https://www.yelp.com/biz/paracas-peruvian-restaurant-and-bar-brooklyn'
p469
aS'https://www.yelp.com/biz/fusha-asian-cuisine-new-york-2'
p470
aS'https://www.yelp.com/biz/sweet-passion-desserts-new-hyde-park'
p471
aS'https://www.yelp.com/biz/flatiron-building-new-york-2'
p472
aS'https://www.yelp.com/biz/henrys-end-restaurant-brooklyn-2'
p473
aS'https://www.yelp.com/biz/ps-cafe-brooklyn'
p474
aS'https://www.yelp.com/biz/111-deli-stop-corp-flushing'
p475
aS'https://www.yelp.com/biz/twin-bicycle-and-sporting-goods-flushing'
p476
aS'https://www.yelp.com/biz/bombay-sandwich-co-new-york'
p477
aS'https://www.yelp.com/biz/maloneys-jamaica'
p478
aS'https://www.yelp.com/biz/the-heath-new-york'
p479
aS'https://www.yelp.com/biz/motorino-brooklyn-2'
p480
aS'https://www.yelp.com/biz/burger-club-astoria'
p481
aS'https://www.yelp.com/biz/springfield-pizzeria-jamaica'
p482
aS'https://www.yelp.com/biz/remo-and-tony-italian-amer-superette-new-hyde-park'
p483
aS'https://www.yelp.com/biz/pepolino-restaurant-new-york'
p484
aS'https://www.yelp.com/biz/luceys-lounge-brooklyn'
p485
aS'https://www.yelp.com/biz/edison-place-glendale?search_key=55271'
p486
aS'https://www.yelp.com/biz/sala-one-nine-new-york'
p487
aS'https://www.yelp.com/biz/subway-queens-village-3'
p488
aS'https://www.yelp.com/biz/p%C3%ADkl%C3%ADz-caf%C3%A9-and-lounge-crown-heights'
p489
aS'https://www.yelp.com/biz/mulberry-and-vine-new-york-2'
p490
aS'https://www.yelp.com/biz/lisas-fish-market-glendale?search_key=55271'
p491
aS'https://www.yelp.com/biz/piccolo-angolo-restaurant-new-york'
p492
aS'https://www.yelp.com/biz/tandoor-restaurant-rego-park-55'
p493
aS'https://www.yelp.com/biz/kinloch-salon-brooklyn'
p494
aS'https://www.yelp.com/biz/tacos-el-vagabundo-sunnyside'
p495
aS'https://www.yelp.com/biz/candle-79-new-york'
p496
aS'https://www.yelp.com/biz/thai-brookyn-brooklyn'
p497
aS'https://www.yelp.com/biz/fabio-scalia-brooklyn-2'
p498
aS'https://www.yelp.com/biz/banhmigos-brooklyn'
p499
aS'https://www.yelp.com/biz/pizza-plus-brooklyn-2'
p500
aS'https://www.yelp.com/biz/international-coffee-shop-ridgewood'
p501
aS'https://www.yelp.com/biz/seamores-new-york'
p502
aS'https://www.yelp.com/biz/umd-urgent-care-williamsburg-brooklyn'
p503
aS'https://www.yelp.com/biz/polaris-hair-studio-new-york'
p504
aS'https://www.yelp.com/biz/yakiniku-futago-new-york'
p505
aS'https://www.yelp.com/biz/shake-shack-new-york-2'
p506
aS'https://www.yelp.com/biz/hartleys-brooklyn'
p507
aS'https://www.yelp.com/biz/tropical-twist-restaurant-flatbush-ditmas-park'
p508
aS'https://www.yelp.com/biz/ciros-pastry-shop-rockaway-park'
p509
aS'https://www.yelp.com/biz/manhattan-cricket-club-new-york-3'
p510
aS'https://www.yelp.com/biz/kirsh-bakery-and-kitchen-new-york'
p511
aS'https://www.yelp.com/biz/bar-cyrk-new-york'
p512
aS'https://www.yelp.com/biz/pye-boat-noodle-astoria'
p513
aS'https://www.yelp.com/biz/umbertos-pizzeria-and-restaurant-new-hyde-park'
p514
aS'https://www.yelp.com/biz/beehive-oven-biscuit-cafe-brooklyn'
p515
aS'https://www.yelp.com/biz/caribbean-delights-queens-village'
p516
aS'https://www.yelp.com/biz/the-nomad-bar-new-york-2'
p517
aS'https://www.yelp.com/biz/urban-garden-center-manhattan'
p518
aS'https://www.yelp.com/biz/subway-jamaica'
p519
aS'https://www.yelp.com/biz/pearls-social-and-billy-club-brooklyn'
p520
aS'https://www.yelp.com/biz/namaste-astoria-2'
p521
aS'https://www.yelp.com/biz/queens-original-steak-n-take-jamaica'
p522
aS'https://www.yelp.com/biz/connollys-corner-maspeth'
p523
aS'https://www.yelp.com/biz/lunitas-brooklyn'
p524
aS'https://www.yelp.com/biz/el-jeffe-brooklyn'
p525
aS'https://www.yelp.com/biz/bistro-petit-brooklyn'
p526
aS'https://www.yelp.com/biz/loukoumi-taverna-astoria-2'
p527
aS'https://www.yelp.com/biz/northerly-brooklyn'
p528
aS'https://www.yelp.com/biz/astoria-bier-and-cheese-astoria'
p529
aS'https://www.yelp.com/biz/precious-metal-bushwick'
p530
aS'https://www.yelp.com/biz/pet-ark-new-york'
p531
aS'https://www.yelp.com/biz/sushi-ya-new-hyde-park'
p532
aS'https://www.yelp.com/biz/delroys-cafe-and-wine-bar-brooklyn'
p533
aS'https://www.yelp.com/biz/cafe-prague-new-york-2'
p534
aS'https://www.yelp.com/biz/eleven-madison-park-new-york'
p535
aS'https://www.yelp.com/biz/m%C3%A9m%C3%A9-mediterranean-new-york-4'
p536
aS'https://www.yelp.com/biz/stumptown-coffee-roasters-new-york'
p537
aS'https://www.yelp.com/biz/the-gander-new-york'
p538
aS'https://www.yelp.com/biz/margherita-pizza-jamaica'
p539
aS'https://www.yelp.com/biz/rabbithole-restaurant-brooklyn'
p540
aS'https://www.yelp.com/biz/the-nuaa-new-york'
p541
aS'https://www.yelp.com/biz/parma-new-york'
p542
aS'https://www.yelp.com/biz/kottu-house-new-york'
p543
aS'https://www.yelp.com/biz/east-meets-west-rockaway-park'
p544
aS'https://www.yelp.com/biz/little-caesars-pizza-jamaica-6'
p545
aS'https://www.yelp.com/biz/arturos-italian-restaurant-floral-park-3'
p546
aS'https://www.yelp.com/biz/tasty-and-co-rego-park'
p547
aS'https://www.yelp.com/biz/georgias-eastside-bbq-new-york'
p548
aS'https://www.yelp.com/biz/joe-coffee-new-york-6'
p549
aS'https://www.yelp.com/biz/joe-coffee-new-york-5'
p550
aS'https://www.yelp.com/biz/anella-brooklyn'
p551
aS'https://www.yelp.com/biz/bobbys-department-store-brooklyn-2'
p552
aS'https://www.yelp.com/biz/cheeseburger-cheeseburger-staten-island'
p553
aS'https://www.yelp.com/biz/port-cafe-new-hyde-park'
p554
aS'https://www.yelp.com/biz/joe-and-johns-pizzeria-ridgewood'
p555
aS'https://www.yelp.com/biz/smith-and-mills-new-york'
p556
aS'https://www.yelp.com/biz/glitz-nail-new-york?search_key=65743'
p557
aS'https://www.yelp.com/biz/hometown-bar-b-que-brooklyn'
p558
aS'https://www.yelp.com/biz/butter-and-scotch-brooklyn-2'
p559
aS'https://www.yelp.com/biz/luigis-pizzaria-mount-eden'
p560
aS'https://www.yelp.com/biz/the-barn-astoria'
p561
aS'https://www.yelp.com/biz/new-mk-mobile-maspeth'
p562
aS'https://www.yelp.com/biz/diamante-poblano-restaurant-corporation-bronx'
p563
aS'https://www.yelp.com/biz/tulcingo-grocery-corona'
p564
aS'https://www.yelp.com/biz/table-87-coal-oven-pizza-brooklyn'
p565
aS'https://www.yelp.com/biz/stone-park-cafe-brooklyn-3'
p566
aS'https://www.yelp.com/biz/adar-moroccan-lounge-new-york'
p567
aS'https://www.yelp.com/biz/the-dakota-new-york'
p568
aS'https://www.yelp.com/biz/tanoreen-brooklyn-2'
p569
aS'https://www.yelp.com/biz/hayden-kings-beauty-new-york-6'
p570
aS'https://www.yelp.com/biz/quick-best-appliance-repair-new-york'
p571
aS'https://www.yelp.com/biz/the-monk-ridgewood'
p572
aS'https://www.yelp.com/biz/astoria-brewhouse-astoria-2'
p573
aS'https://www.yelp.com/biz/welling-court-mural-project-astoria'
p574
aS'https://www.yelp.com/biz/cositas-ricas-jackson-heights-2'
p575
aS'https://www.yelp.com/biz/caffe-vita-new-york-2'
p576
aS'https://www.yelp.com/biz/the-river-caf%C3%A9-brooklyn-3'
p577
aS'https://www.yelp.com/biz/bravo-african-restaurant-east-bronx'
p578
aS'https://www.yelp.com/biz/the-kiosk-new-york'
p579
aS'https://www.yelp.com/biz/cherry-point-brooklyn'
p580
aS'https://www.yelp.com/biz/papa-johns-pizza-bronx-21'
p581
aS'https://www.yelp.com/biz/grimaldis-new-york-4'
p582
aS'https://www.yelp.com/biz/osaka-sushi-express-brooklyn'
p583
aS'https://www.yelp.com/biz/ootoya-chelsea-new-york'
p584
aS'https://www.yelp.com/biz/henrys-wine-and-spirit-brooklyn'
p585
aS'https://www.yelp.com/biz/brooklyn-bridge-garden-bar-brooklyn'
p586
aS'https://www.yelp.com/biz/glendale-bagels-and-quality-deli-glendale?search_key=55271'
p587
aS'https://www.yelp.com/biz/plum-tomatoes-pizzeria-and-restaurant-belle-harbor'
p588
aS'https://www.yelp.com/biz/flex-mussels-new-york'
p589
aS'https://www.yelp.com/biz/argo-tea-new-york-5'
p590
aS'https://www.yelp.com/biz/iavarone-bros-quality-foods-maspeth-2'
p591
aS'https://www.yelp.com/biz/bella-roma-new-york'
p592
aS'https://www.yelp.com/biz/tequilaz-restaurant-lounge-bronx'
p593
aS'https://www.yelp.com/biz/flatiron-room-new-york'
p594
aS'https://www.yelp.com/biz/porteno-restaurant-new-york'
p595
aS'https://www.yelp.com/biz/sofia-pizza-brooklyn'
p596
aS'https://www.yelp.com/biz/red-hook-food-vendors-brooklyn-2'
p597
aS'https://www.yelp.com/biz/peteys-burger-astoria'
p598
aS'https://www.yelp.com/biz/grandma-laundry-corner-incorporated-brooklyn'
p599
aS'https://www.yelp.com/biz/toloache-new-york-4'
p600
aS'https://www.yelp.com/biz/antojitos-mexicanos-brooklyn'
p601
aS'https://www.yelp.com/biz/otaki-sushi-garden-city-park-3'
p602
aS'https://www.yelp.com/biz/williamsburg-pizza-new-york-3'
p603
aS'https://www.yelp.com/biz/dun-well-doughnuts-brooklyn'
p604
aS'https://www.yelp.com/biz/roasting-plant-new-york-4'
p605
aS'https://www.yelp.com/biz/la-cabana-2-salvadorena-restaurant-bronx'
p606
aS'https://www.yelp.com/biz/injera-new-york'
p607
aS'https://www.yelp.com/biz/rebel-coffee-new-york'
p608
aS'https://www.yelp.com/biz/the-breakfast-shack-astoria'
p609
aS'https://www.yelp.com/biz/birch-coffee-new-york-11'
p610
aS'https://www.yelp.com/biz/tim-hortons-jamaica'
p611
aS'https://www.yelp.com/biz/rosa-mexicano-new-york-5'
p612
aS'https://www.yelp.com/biz/max-new-york-2'
p613
aS'https://www.yelp.com/biz/fame-diner-maspeth-2'
p614
aS'https://www.yelp.com/biz/armonie-new-york'
p615
aS'https://www.yelp.com/biz/angkor-cambodian-bistro-new-york'
p616
aS'https://www.yelp.com/biz/royal-rib-house-brooklyn'
p617
aS'https://www.yelp.com/biz/t-b-d-brooklyn-brooklyn-2'
p618
aS'https://www.yelp.com/biz/red-line-auto-and-tire-center-tire-pros-corona'
p619
aS'https://www.yelp.com/biz/humboldt-and-jackson-williamsburg'
p620
aS'https://www.yelp.com/biz/kevins-brooklyn'
p621
aS'https://www.yelp.com/biz/irving-farm-coffee-roasters-new-york-2'
p622
aS'https://www.yelp.com/biz/faros-restaurant-brooklyn-4'
p623
aS'https://www.yelp.com/biz/bagel-world-brooklyn-3'
p624
aS'https://www.yelp.com/biz/wen-gee-house-new-york'
p625
aS'https://www.yelp.com/biz/meadowsweet-williamsburg'
p626
aS'https://www.yelp.com/biz/baby-brasa-new-york'
p627
aS'https://www.yelp.com/biz/corkbuzz-wine-studio-new-york'
p628
aS'https://www.yelp.com/biz/carroll-place-new-york'
p629
aS'https://www.yelp.com/biz/crawford-dog-and-cat-hospital-new-hyde-park'
p630
aS'https://www.yelp.com/biz/marios-pizza-bronx'
p631
aS'https://www.yelp.com/biz/indian-spice-brooklyn'
p632
aS'https://www.yelp.com/biz/new-jumbo-taste-new-hyde-park'
p633
aS'https://www.yelp.com/biz/d-and-f-italian-deli-astoria'
p634
aS'https://www.yelp.com/biz/kenka-new-york'
p635
aS'https://www.yelp.com/biz/maha-rose-center-for-healing-brooklyn'
p636
aS'https://www.yelp.com/biz/magic-soul-food-jamaica'
p637
aS'https://www.yelp.com/biz/champs-diner-brooklyn'
p638
aS'https://www.yelp.com/biz/nellys-flower-shop-brooklyn'
p639
aS'https://www.yelp.com/biz/brushstroke-new-york'
p640
aS'https://www.yelp.com/biz/pardalis-and-nohavicka-astoria'
p641
aS'https://www.yelp.com/biz/qkachapa-manhattan'
p642
aS'https://www.yelp.com/biz/friends-and-lovers-brooklyn'
p643
aS'https://www.yelp.com/biz/new-hua-yung-kitchen-new-york'
p644
aS'https://www.yelp.com/biz/burke-and-wills-new-york'
p645
aS'https://www.yelp.com/biz/halyards-brooklyn-2'
p646
aS'https://www.yelp.com/biz/affordable-locksmith-and-hardware-lll-inc-brooklyn'
p647
aS'https://www.yelp.com/biz/tattoos-by-mike-paterek-bronx'
p648
aS'https://www.yelp.com/biz/the-crown-inn-brooklyn'
p649
aS'https://www.yelp.com/biz/the-nomad-hotel-new-york-3'
p650
aS'https://www.yelp.com/biz/claw-daddys-new-york'
p651
aS'https://www.yelp.com/biz/well-being-fish-and-deli-jamaica'
p652
aS'https://www.yelp.com/biz/wok-wok-chinese-restaurant-bronx'
p653
aS'https://www.yelp.com/biz/el-born-brooklyn'
p654
aS'https://www.yelp.com/biz/optical-warehouse-outlet-ridgewood'
p655
aS'https://www.yelp.com/biz/karaoke-one-7-new-york'
p656
aS'https://www.yelp.com/biz/rockwood-music-hall-new-york'
p657
aS'https://www.yelp.com/biz/blacksea-fish-and-grill-rego-park'
p658
aS'https://www.yelp.com/biz/gran-electrica-brooklyn'
p659
aS'https://www.yelp.com/biz/suzu-sushi-new-york'
p660
aS'https://www.yelp.com/biz/victors-coffee-shop-queens-village'
p661
aS'https://www.yelp.com/biz/carmelita-deli-and-grocery-brooklyn'
p662
aS'https://www.yelp.com/biz/grill-212-new-york'
p663
aS'https://www.yelp.com/biz/cusp-crepe-and-espresso-bar-brooklyn'
p664
aS'https://www.yelp.com/biz/daddyos-bbq-and-sports-bar-staten-island'
p665
aS'https://www.yelp.com/biz/fabianes-brooklyn'
p666
aS'https://www.yelp.com/biz/rye-house-new-york'
p667
aS'https://www.yelp.com/biz/alices-arbor-brooklyn'
p668
aS'https://www.yelp.com/biz/tutt-cafe-brooklyn'
p669
aS'https://www.yelp.com/biz/otb-brooklyn'
p670
aS'https://www.yelp.com/biz/hancos-brooklyn-2'
p671
aS'https://www.yelp.com/biz/manor-oktoberfest-glendale'
p672
aS'https://www.yelp.com/biz/a-churrasqueira-restaurant-and-bar-jamaica'
p673
aS'https://www.yelp.com/biz/glendale-diner-glendale?search_key=55271'
p674
aS'https://www.yelp.com/biz/rx-plus-pharmacy-glendale?search_key=55271'
p675
aS'https://www.yelp.com/biz/alice-soloway-weddings-brooklyn-2'
p676
aS'https://www.yelp.com/biz/osteria-cotta-new-york'
p677
aS'https://www.yelp.com/biz/la-esquina-new-york-4'
p678
aS'https://www.yelp.com/biz/waldys-wood-fired-pizza-and-penne-new-york-5'
p679
aS'https://www.yelp.com/biz/greecologies-new-york'
p680
aS'https://www.yelp.com/biz/kingsley-new-york-2?search_key=65743'
p681
aS'https://www.yelp.com/biz/quinn-florist-astoria'
p682
aS'https://www.yelp.com/biz/new-ocean-king-seafood-brooklyn'
p683
aS'https://www.yelp.com/biz/dominos-pizza-bronx-24'
p684
aS'https://www.yelp.com/biz/dominos-pizza-bronx-25'
p685
aS'https://www.yelp.com/biz/coatzingo-restaurant-jackson-heights'
p686
aS'https://www.yelp.com/biz/petes-grill-sunnyside'
p687
aS'https://www.yelp.com/biz/pico-rockaway'
p688
aS'https://www.yelp.com/biz/market-table-new-york'
p689
aS'https://www.yelp.com/biz/cellar-25-new-hyde-park'
p690
aS'https://www.yelp.com/biz/errols-caribbean-bakery-brooklyn'
p691
aS'https://www.yelp.com/biz/king-pizza-and-fried-chicken-brooklyn-2'
p692
aS'https://www.yelp.com/biz/salon-orchard-new-york'
p693
aS'https://www.yelp.com/biz/five-leaves-brooklyn-2'
p694
aS'https://www.yelp.com/biz/coco-fresh-tea-and-juice-elmhurst'
p695
aS'https://www.yelp.com/biz/cha-an-new-york'
p696
aS'https://www.yelp.com/biz/lens-lab-express-bronx-2'
p697
aS'https://www.yelp.com/biz/canal-sound-and-light-new-york'
p698
aS'https://www.yelp.com/biz/brandy-library-new-york'
p699
aS'https://www.yelp.com/biz/stammtisch-pork-store-glendale?search_key=55271'
p700
aS'https://www.yelp.com/biz/paisley-bridal-middle-village'
p701
aS'https://www.yelp.com/biz/opa-souvlaki-astoria'
p702
aS'https://www.yelp.com/biz/bite-new-york-6'
p703
aS'https://www.yelp.com/biz/joes-pizza-brooklyn-8'
p704
aS'https://www.yelp.com/biz/mamouns-falafel-new-york'
p705
aS'https://www.yelp.com/biz/koronet-pizza-new-york-3'
p706
aS'https://www.yelp.com/biz/crocus-juice-bar-and-cafe-brooklyn'
p707
aS'https://www.yelp.com/biz/amy-ruths-new-york'
p708
aS'https://www.yelp.com/biz/the-greater-allen-cathedral-jamaica-2'
p709
aS'https://www.yelp.com/biz/fordham-restaurant-bronx'
p710
aS'https://www.yelp.com/biz/rising-phoenix-tattoo-bronx'
p711
aS'https://www.yelp.com/biz/soap-cherie-brooklyn-2'
p712
aS'https://www.yelp.com/biz/petbuddy-services-brooklyn-2'
p713
aS'https://www.yelp.com/biz/le-moment-queens'
p714
aS'https://www.yelp.com/biz/astoria-coffee-astoria'
p715
aS'https://www.yelp.com/biz/cream-coffee-and-tea-shop-brooklyn-2'
p716
aS'https://www.yelp.com/biz/dorothy-shi-photography-new-york-2'
p717
aS'https://www.yelp.com/biz/nearys-new-york'
p718
aS'https://www.yelp.com/biz/anthony-and-son-panini-shoppe-brooklyn'
p719
aS'https://www.yelp.com/biz/haile-bistro-new-york?search_key=65743'
p720
aS'https://www.yelp.com/biz/sal-and-lloyds-pizza-place-staten-island'
p721
aS'https://www.yelp.com/biz/sams-famous-pizza-new-york'
p722
aS'https://www.yelp.com/biz/dorado-tacos-new-york-2'
p723
aS'https://www.yelp.com/biz/springhill-suites-new-york-laguardia-airport-corona'
p724
aS'https://www.yelp.com/biz/waterfalls-in-central-park-new-york'
p725
aS'https://www.yelp.com/biz/rainhas-churrascaria-corona'
p726
aS'https://www.yelp.com/biz/moms-standard-brooklyn'
p727
aS'https://www.yelp.com/biz/brookvin-brooklyn'
p728
aS'https://www.yelp.com/biz/brooklyn-beet-company-brooklyn'
p729
aS'https://www.yelp.com/biz/la-nueva-estrella-bronx'
p730
aS'https://www.yelp.com/biz/m-and-r-pizza-bronx'
p731
aS'https://www.yelp.com/biz/caffe-buon-gusto-new-york-4'
p732
aS'https://www.yelp.com/biz/vanessas-dumpling-house-new-york-2'
p733
aS'https://www.yelp.com/biz/bar-bolonat-new-york-2'
p734
aS'https://www.yelp.com/biz/pala-new-york'
p735
aS'https://www.yelp.com/biz/popeyes-jamaica-5'
p736
aS'https://www.yelp.com/biz/sunnyside-pizza-sunnyside-2'
p737
aS'https://www.yelp.com/biz/adyar-ananda-bhavan-new-york'
p738
aS'https://www.yelp.com/biz/machiavelli-new-york'
p739
aS'https://www.yelp.com/biz/anchor-wine-bar-new-york-3'
p740
aS'https://www.yelp.com/biz/sai-organics-astoria'
p741
aS'https://www.yelp.com/biz/laconia-music-center-inc-new-hyde-park'
p742
aS'https://www.yelp.com/biz/cozy-coffee-corp-brooklyn-3'
p743
aS'https://www.yelp.com/biz/la-sala-astoria'
p744
aS'https://www.yelp.com/biz/twin-donut-shop-bronx'
p745
aS'https://www.yelp.com/biz/semilla-williamsburg-2'
p746
aS'https://www.yelp.com/biz/safari-restaurant-nyc-new-york'
p747
aS'https://www.yelp.com/biz/taboonette-new-york'
p748
aS'https://www.yelp.com/biz/983-bushwicks-living-room-brooklyn'
p749
aS'https://www.yelp.com/biz/tacos-el-paisa-new-york'
p750
aS'https://www.yelp.com/biz/brooklyn-bagel-and-coffee-company-astoria'
p751
aS'https://www.yelp.com/biz/cafe-dada-brooklyn'
p752
aS'https://www.yelp.com/biz/ho-wah-chinese-restaurant-brooklyn'
p753
aS'https://www.yelp.com/biz/mister-fish-mkt-jamaica'
p754
aS'https://www.yelp.com/biz/bitters-and-bones-saranac-lake-2'
p755
aS'https://www.yelp.com/biz/chicken-provence-new-york'
p756
aS'https://www.yelp.com/biz/la-grata-new-york'
p757
aS'https://www.yelp.com/biz/not-the-rug-brooklyn'
p758
aS'https://www.yelp.com/biz/ruby-tuesday-johnson-city-2'
p759
aS'https://www.yelp.com/biz/palominos-bar-and-restaurant-franklin-square'
p760
aS'https://www.yelp.com/biz/new-star-buffet-niagara-falls-2'
p761
aS'https://www.yelp.com/biz/ala-shanghai-chinese-cuisine-latham'
p762
aS'https://www.yelp.com/biz/royal-class-barber-shop-new-york'
p763
aS'https://www.yelp.com/biz/new-york-pizzeria-lowville'
p764
aS'https://www.yelp.com/biz/bug-jar-rochester'
p765
aS'https://www.yelp.com/biz/the-islands-brooklyn-2'
p766
aS'https://www.yelp.com/biz/dipisa-subs-rochester'
p767
aS'https://www.yelp.com/biz/kingston-tropical-bakery-bronx'
p768
aS'https://www.yelp.com/biz/anchor-aquarium-service-inc-brooklyn'
p769
aS'https://www.yelp.com/biz/da-giorgio-new-rochelle'
p770
aS'https://www.yelp.com/biz/toad-style-bedford-stuyvesant'
p771
aS'https://www.yelp.com/biz/drive-rite-academy-brooklyn'
p772
aS'https://www.yelp.com/biz/los-tacos-mcondo-williamsburg'
p773
aS'https://www.yelp.com/biz/covert-coffee-brooklyn'
p774
aS'https://www.yelp.com/biz/aroma-brazil-restaurant-jackson-heights'
p775
aS'https://www.yelp.com/biz/excellence-eyebrow-threading-brooklyn'
p776
aS'https://www.yelp.com/biz/essentia-usa-fishkill'
p777
aS'https://www.yelp.com/biz/delaware-and-hudson-brooklyn'
p778
aS'https://www.yelp.com/biz/starbucks-carmel-9'
p779
aS'https://www.yelp.com/biz/louies-pizza-elmhurst-2'
p780
aS'https://www.yelp.com/biz/pera-bell-food-bar-riverhead'
p781
aS'https://www.yelp.com/biz/steves-piccola-bussola-westbury'
p782
aS'https://www.yelp.com/biz/bc-kitchen-bar-poughkeepsie'
p783
aS'https://www.yelp.com/biz/humo-smokehouse-brooklyn'
p784
aS'https://www.yelp.com/biz/juliette-brooklyn'
p785
aS'https://www.yelp.com/biz/las-tejas-restaurant-bar-farmingville'
p786
aS'https://www.yelp.com/biz/skyline-diner-rensselaer'
p787
aS'https://www.yelp.com/biz/chimi-taco-truck-yonkers'
p788
aS'https://www.yelp.com/biz/chuck-and-blade-new-york'
p789
aS'https://www.yelp.com/biz/kelloggs-nyc-new-york-2'
p790
aS'https://www.yelp.com/biz/an-american-bistro-tuckahoe'
p791
aS'https://www.yelp.com/biz/drink-brooklyn'
p792
aS'https://www.yelp.com/biz/rossinis-new-york'
p793
aS'https://www.yelp.com/biz/corner-gourmet-deli-bronx'
p794
aS'https://www.yelp.com/biz/the-good-dine-bronx'
p795
aS'https://www.yelp.com/biz/al-gusto-bay-shore'
p796
aS'https://www.yelp.com/biz/sinapis-pizza-rustica-bedford-hills'
p797
aS'https://www.yelp.com/biz/sushi-nakazawa-new-york'
p798
aS'https://www.yelp.com/biz/giacalones-deli-shirley'
p799
aS'https://www.yelp.com/biz/riverdel-brooklyn'
p800
aS'https://www.yelp.com/biz/awnings-unlimited-tri-state-mount-vernon'
p801
aS'https://www.yelp.com/biz/cafe-lore-brooklyn'
p802
aS'https://www.yelp.com/biz/liceout911-bedford-hills'
p803
aS'https://www.yelp.com/biz/post-office-brooklyn-6'
p804
aS'https://www.yelp.com/biz/lloyds-of-lowville-lowville'
p805
aS'https://www.yelp.com/biz/popeyes-fried-chicken-shirley'
p806
aS'https://www.yelp.com/biz/our-place-bar-and-grill-mechanicville'
p807
aS'https://www.yelp.com/biz/guacamole-mexican-grill-franklin-square'
p808
aS'https://www.yelp.com/biz/jus-jerk-mount-vernon'
p809
aS'https://www.yelp.com/biz/park-optics-new-york'
p810
aS'https://www.yelp.com/biz/mee-noodle-new-york'
p811
aS'https://www.yelp.com/biz/bubbles-restaurant-mechanicville'
p812
aS'https://www.yelp.com/biz/euro-deli-and-market-latham'
p813
aS'https://www.yelp.com/biz/rocking-horse-cafe-new-york'
p814
aS'https://www.yelp.com/biz/crepe-sucre-new-york-2'
p815
aS'https://www.yelp.com/biz/mcdonalds-johnson-city-3'
p816
aS'https://www.yelp.com/biz/jimbos-hamburger-palace-new-york-9'
p817
aS'https://www.yelp.com/biz/mcdonalds-bedford-hills'
p818
aS'https://www.yelp.com/biz/dinosaur-bar-b-que-rochester'
p819
aS'https://www.yelp.com/biz/more-perrecas-schenectady-3'
p820
aS'https://www.yelp.com/biz/bluestone-lane-new-york-10'
p821
aS'https://www.yelp.com/biz/gianfrancos-pizza-and-pasta-cafe-bedford-hills'
p822
aS'https://www.yelp.com/biz/xixa-brooklyn'
p823
aS'https://www.yelp.com/biz/scorpion-hookah-lounge-and-cafe-hempstead-2'
p824
aS'https://www.yelp.com/biz/earth-angels-veterinary-hospital-wappingers-falls'
p825
aS'https://www.yelp.com/biz/applebees-latham'
p826
aS'https://www.yelp.com/biz/your-presence-salon-poughkeepsie'
p827
aS'https://www.yelp.com/biz/best-pizza-brooklyn'
p828
aS'https://www.yelp.com/biz/westside-coffee-shop-new-york'
p829
aS'https://www.yelp.com/biz/el-valle-restaurant-new-york-3'
p830
aS'https://www.yelp.com/biz/dicks-sporting-goods-colonie'
p831
aS'https://www.yelp.com/biz/checkers-westbury'
p832
aS'https://www.yelp.com/biz/don-pepe-tortas-and-jugos-brooklyn'
p833
aS'https://www.yelp.com/biz/lias-pizzeria-oceanside'
p834
aS'https://www.yelp.com/biz/il-sogno-secondo-brooklyn'
p835
aS'https://www.yelp.com/biz/red-lobster-middletown'
p836
aS'https://www.yelp.com/biz/macdonough-caf%C3%A9-brooklyn-3'
p837
aS'https://www.yelp.com/biz/bemelmans-bar-new-york'
p838
aS'https://www.yelp.com/biz/welcome-oriental-grocery-poughkeepsie'
p839
aS'https://www.yelp.com/biz/7-tacos-mexican-cuisine-new-york'
p840
aS'https://www.yelp.com/biz/peter-j-silver-dds-new-york-2'
p841
aS'https://www.yelp.com/biz/corcho-wine-room-new-york'
p842
aS'https://www.yelp.com/biz/sunset-deli-brooklyn'
p843
aS'https://www.yelp.com/biz/island-burger-east-flatbush'
p844
aS'https://www.yelp.com/biz/ward-acres-new-rochelle'
p845
aS'https://www.yelp.com/biz/pates-et-traditions-brooklyn'
p846
aS'https://www.yelp.com/biz/kajitsu-new-york-3'
p847
aS'https://www.yelp.com/biz/tony-and-nicks-italian-kitchen-ellenville'
p848
aS'https://www.yelp.com/biz/the-wilky-brooklyn'
p849
aS'https://www.yelp.com/biz/wings-n-things-hempstead'
p850
aS'https://www.yelp.com/biz/pizza-bella-yonkers'
p851
aS'https://www.yelp.com/biz/cas-west-indian-and-american-restaurant-brooklyn'
p852
aS'https://www.yelp.com/biz/tax-refund-king-bronx'
p853
aS'https://www.yelp.com/biz/jose-fish-market-jackson-heights'
p854
aS'https://www.yelp.com/biz/reggae-cafe-brooklyn'
p855
aS'https://www.yelp.com/biz/jebs-restaurant-lowville'
p856
aS'https://www.yelp.com/biz/sazon-nunez-brooklyn'
p857
aS'https://www.yelp.com/biz/rare-bar-and-grill-new-york-4'
p858
aS'https://www.yelp.com/biz/le-express-bistro-and-bar-poughkeepsie'
p859
aS'https://www.yelp.com/biz/twisted-soul-poughkeepsie'
p860
aS'https://www.yelp.com/biz/tonys-pizzeria-and-restaurant-brooklyn-3'
p861
aS'https://www.yelp.com/biz/carmelas-pizzeria-and-restaurant-franklin-square'
p862
aS'https://www.yelp.com/biz/dominos-pizza-bronx-13'
p863
aS'https://www.yelp.com/biz/r-lounge-at-two-times-square-new-york'
p864
aS'https://www.yelp.com/biz/manchu-garden-port-chester-2'
p865
aS'https://www.yelp.com/biz/great-chinese-buffet-johnson-city'
p866
aS'https://www.yelp.com/biz/tacos-matamoros-brooklyn'
p867
aS'https://www.yelp.com/biz/kung-fu-tea-jackson-heights'
p868
aS'https://www.yelp.com/biz/frankly-thai-franklin-square-4'
p869
aS'https://www.yelp.com/biz/fobare-and-grandsons-plumbing-and-heating-saranac-lake'
p870
aS'https://www.yelp.com/biz/taj-mahal-indian-palace-syracuse-2'
p871
aS'https://www.yelp.com/biz/chocolatte-brooklyn-6'
p872
aS'https://www.yelp.com/biz/lucky-lotus-yoga-brooklyn-7'
p873
aS'https://www.yelp.com/biz/bricktown-deli-and-grocery-hempstead-2'
p874
aS'https://www.yelp.com/biz/pizzetteria-brunetti-new-york'
p875
aS'https://www.yelp.com/biz/caf%C3%A9-martin-brooklyn-2'
p876
aS'https://www.yelp.com/biz/international-restaurant-brooklyn'
p877
aS'https://www.yelp.com/biz/dominicks-pizzeria-bronx-2'
p878
aS'https://www.yelp.com/biz/eagle-auto-mall-riverhead'
p879
aS'https://www.yelp.com/biz/los-chuzos-y-algo-mas-jackson-heights'
p880
aS'https://www.yelp.com/biz/elias-pizzeria-two-rensselaer'
p881
aS'https://www.yelp.com/biz/new-pagoda-kitchen-carmel'
p882
aS'https://www.yelp.com/biz/hopewell-tailor-shop-wappingers-falls-2'
p883
aS'https://www.yelp.com/biz/chez-alex-bedford-stuyvesant'
p884
aS'https://www.yelp.com/biz/caf%C3%A9-integral-new-york'
p885
aS'https://www.yelp.com/biz/civitellos-italian-pastry-shoppe-schenectady'
p886
aS'https://www.yelp.com/biz/movage-moving-storage-bronx'
p887
aS'https://www.yelp.com/biz/tacos-el-poblano-yonkers'
p888
aS'https://www.yelp.com/biz/brick-house-tavern-tap-latham-4'
p889
aS'https://www.yelp.com/biz/roosters-cafe-buffalo'
p890
aS'https://www.yelp.com/biz/matisse-new-york-2'
p891
aS'https://www.yelp.com/biz/southside-coffee-brooklyn?search_key=66857'
p892
aS'https://www.yelp.com/biz/di-rosa-haircare-franklin-square'
p893
aS'https://www.yelp.com/biz/baguette-express-brooklyn'
p894
aS'https://www.yelp.com/biz/lincoln-station-brooklyn'
p895
aS'https://www.yelp.com/biz/peter-luger-brooklyn-2'
p896
aS'https://www.yelp.com/biz/fairways-of-halfmoon-mechanicville'
p897
aS'https://www.yelp.com/biz/la-morada-restaurant-bronx'
p898
aS'https://www.yelp.com/biz/tokyo-express-poughkeepsie'
p899
aS'https://www.yelp.com/biz/napolini-express-uniondale'
p900
aS'https://www.yelp.com/biz/mcdonalds-staten-island-12'
p901
aS'https://www.yelp.com/biz/the-porterhouse-fairport'
p902
aS'https://www.yelp.com/biz/l-industrie-pizzeria-williamsburg'
p903
aS'https://www.yelp.com/biz/savoy-4-bakery-brooklyn'
p904
aS'https://www.yelp.com/biz/texas-roadhouse-syracuse'
p905
aS'https://www.yelp.com/biz/bell-park-deli-floral-park'
p906
aS'https://www.yelp.com/biz/cafe-zona-sur-brooklyn'
p907
aS'https://www.yelp.com/biz/bouley-new-york-2'
p908
aS'https://www.yelp.com/biz/sarges-delicatessen-and-diner-new-york'
p909
aS'https://www.yelp.com/biz/regal-nails-latham'
p910
aS'https://www.yelp.com/biz/macaron-caf%C3%A9-new-york-6'
p911
aS'https://www.yelp.com/biz/buns-bar-new-york'
p912
aS'https://www.yelp.com/biz/thomas-paine-national-historical-assn-musm-and-cttge-wykagyl'
p913
aS'https://www.yelp.com/biz/seven-seas-pediatric-dentistry-wappingers-falls'
p914
aS'https://www.yelp.com/biz/cup-of-brooklyn-brooklyn'
p915
aS'https://www.yelp.com/biz/the-gnarly-vine-wine-bar-new-rochelle'
p916
aS'https://www.yelp.com/biz/cafe-baci-westbury'
p917
aS'https://www.yelp.com/biz/the-cobra-club-bushwick'
p918
aS'https://www.yelp.com/biz/sethi-sangeeta-dds-pc-bronx'
p919
aS'https://www.yelp.com/biz/origin-coffee-saranac-lake'
p920
aS'https://www.yelp.com/biz/mangia-and-bevi-deli-restaurant-poughkeepsie'
p921
aS'https://www.yelp.com/biz/midnights-brooklyn-2'
p922
aS'https://www.yelp.com/biz/pies-n-thighs-brooklyn'
p923
aS'https://www.yelp.com/biz/tobys-estate-coffee-brooklyn'
p924
aS'https://www.yelp.com/biz/el-diablo-taco-truck-brooklyn'
p925
aS'https://www.yelp.com/biz/panda-chinese-restaurant-bronx'
p926
aS'https://www.yelp.com/biz/mexico-2000-grocery-brooklyn'
p927
aS'https://www.yelp.com/biz/klara-beauty-lab-new-york'
p928
aS'https://www.yelp.com/biz/brookmeade-deli-wappingers-falls'
p929
aS'https://www.yelp.com/biz/joeys-olde-world-pizza-middletown-2'
p930
aS'https://www.yelp.com/biz/moes-southwest-grill-oceanside'
p931
aS'https://www.yelp.com/biz/panera-bread-bedford-hills'
p932
aS'https://www.yelp.com/biz/pavones-pizza-east-syracuse'
p933
aS'https://www.yelp.com/biz/firudo-asian-food-syracuse'
p934
aS'https://www.yelp.com/biz/garys-restaurant-lowville'
p935
aS'https://www.yelp.com/biz/five-guys-burgers-and-fries-staten-island'
p936
aS'https://www.yelp.com/biz/happy-steer-meats-shirley'
p937
aS'https://www.yelp.com/biz/el-bandido-middletown'
p938
aS'https://www.yelp.com/biz/jims-delicatessen-uniondale'
p939
aS'https://www.yelp.com/biz/camera-land-old-bethpage'
p940
aS'https://www.yelp.com/biz/viscount-wines-and-liquors-wappingers-falls'
p941
aS'https://www.yelp.com/biz/tks-pizzeria-fairport'
p942
aS'https://www.yelp.com/biz/el-mofongo-restaurant-hempstead'
p943
aS'https://www.yelp.com/biz/grindhaus-new-york-2'
p944
aS'https://www.yelp.com/biz/ato-salon-new-york'
p945
aS'https://www.yelp.com/biz/sapore-di-italia-brooklyn-2'
p946
aS'https://www.yelp.com/biz/sake-latham'
p947
aS'https://www.yelp.com/biz/empire-fulton-ferry-state-park-brooklyn'
p948
aS'https://www.yelp.com/biz/pho-corner-bedford-hills'
p949
aS'https://www.yelp.com/biz/scarpetta-new-york'
p950
aS'https://www.yelp.com/biz/bedford-diner-and-restaurant-bedford-hills'
p951
aS'https://www.yelp.com/biz/natural-blend-brooklyn'
p952
aS'https://www.yelp.com/biz/la-herradura-inc-ii-new-rochelle'
p953
aS'https://www.yelp.com/biz/pizza-palace-new-york'
p954
aS'https://www.yelp.com/biz/lake-ronkonkoma-diner-ronkonkoma'
p955
aS'https://www.yelp.com/biz/pollos-mario-steak-house-and-seafood-brentwood'
p956
aS'https://www.yelp.com/biz/dominos-pizza-riverhead-2'
p957
aS'https://www.yelp.com/biz/boris-barber-shop-poughkeepsie'
p958
aS'https://www.yelp.com/biz/momosan-ramen-and-sake-new-york-2'
p959
aS'https://www.yelp.com/biz/pasha-dental-brooklyn?search_key=66857'
p960
aS'https://www.yelp.com/biz/saigon-spring-restaurant-clifton-park-2'
p961
aS'https://www.yelp.com/biz/reconnect-cafe-brooklyn-2'
p962
aS'https://www.yelp.com/biz/vera-wang-bridal-house-new-york'
p963
aS'https://www.yelp.com/biz/mechanicville-house-of-pizza-mechanicville'
p964
aS'https://www.yelp.com/biz/la-isla-brooklyn'
p965
aS'https://www.yelp.com/biz/singas-famous-pizza-hempstead'
p966
aS'https://www.yelp.com/biz/sams-place-new-york'
p967
aS'https://www.yelp.com/biz/marcy-and-myrtle-cafe-bedford-stuyvesant'
p968
aS'https://www.yelp.com/biz/red-hook-lobster-pound-brooklyn'
p969
aS'https://www.yelp.com/biz/caf%C3%A9-grumpy-new-york-3'
p970
aS'https://www.yelp.com/biz/lali-guras-jackson-heights'
p971
aS'https://www.yelp.com/biz/tonic-bar-and-restaurant-new-york'
p972
aS'https://www.yelp.com/biz/cholulita-bella-deli-brooklyn'
p973
aS'https://www.yelp.com/biz/high-street-on-hudson-new-york'
p974
aS'https://www.yelp.com/biz/tomas-tapas-bar-and-restaurant-wappingers-falls'
p975
aS'https://www.yelp.com/biz/franklin-square-pharmacy-and-surgical-franklin-square-2'
p976
aS'https://www.yelp.com/biz/the-all-night-egg-plant-east-syracuse'
p977
aS'https://www.yelp.com/biz/bushwick-collective-brooklyn-2'
p978
aS'https://www.yelp.com/biz/brooklyn-heights-promenade-brooklyn'
p979
aS'https://www.yelp.com/biz/banh-mi-place-brooklyn'
p980
aS'https://www.yelp.com/biz/chang-ying-wappingers-falls'
p981
aS'https://www.yelp.com/biz/pollos-a-la-brasa-mario-jackson-heights'
p982
aS'https://www.yelp.com/biz/huguenot-park-new-rochelle'
p983
aS'https://www.yelp.com/biz/compagnie-des-vins-surnaturels-new-york-2'
p984
aS'https://www.yelp.com/biz/millers-ale-house-staten-island-staten-island'
p985
aS'https://www.yelp.com/biz/texas-roadhouse-middletown'
p986
aS'https://www.yelp.com/biz/socarrat-paella-bar-new-york-8'
p987
aS'https://www.yelp.com/biz/silent-barn-brooklyn'
p988
aS'https://www.yelp.com/biz/golden-wok-restaurant-latham'
p989
aS'https://www.yelp.com/biz/ok-myaing-rensselaer'
p990
aS'https://www.yelp.com/biz/flatrate-moving-bronx-2'
p991
aS'https://www.yelp.com/biz/rochelle-coffee-shop-new-rochelle'
p992
aS'https://www.yelp.com/biz/culture-an-american-yogurt-company-brooklyn-2'
p993
aS'https://www.yelp.com/biz/the-black-flamingo-red-hook'
p994
aS'https://www.yelp.com/biz/classic-pools-poughkeepsie'
p995
aS'https://www.yelp.com/biz/dos-caminos-new-york-3'
p996
aS'https://www.yelp.com/biz/five-guys-burgers-and-fries-dewitt'
p997
aS'https://www.yelp.com/biz/nerai-new-york'
p998
aS'https://www.yelp.com/biz/gold-star-jerk-center-bronx-2'
p999
aS'https://www.yelp.com/biz/stay-fresh-grill-and-deli-brooklyn'
p1000
aS'https://www.yelp.com/biz/haiku-sushi-riverhead'
p1001
aS'https://www.yelp.com/biz/paladinos-pizza-syracuse'
p1002
aS'https://www.yelp.com/biz/buddha-rye-brook'
p1003
aS'https://www.yelp.com/biz/hometown-lanes-mechanicville'
p1004
aS'https://www.yelp.com/biz/farmers-and-chefs-poughkeepsie'
p1005
aS'https://www.yelp.com/biz/empire-buffet-syracuse'
p1006
aS'https://www.yelp.com/biz/juquila-mexican-cuisine-elmhurst-2'
p1007
aS'https://www.yelp.com/biz/cachapas-y-mas-new-york'
p1008
aS'https://www.yelp.com/biz/oriental-chinese-restaurant-mechanicville'
p1009
aS'https://www.yelp.com/biz/williamsburg-pizza-brooklyn-brooklyn'
p1010
aS'https://www.yelp.com/biz/ginos-pizzeria-yonkers'
p1011
aS'https://www.yelp.com/biz/long-island-egress-pros-old-bethpage'
p1012
aS'https://www.yelp.com/biz/la-casa-del-pollo-peruano-jackson-heights'
p1013
aS'https://www.yelp.com/biz/wendys-syracuse-2'
p1014
aS'https://www.yelp.com/biz/blue-bottle-coffee-brooklyn-2'
p1015
aS'https://www.yelp.com/biz/margheritas-pizza-bronx'
p1016
aS'https://www.yelp.com/biz/ridge-squire-tuxedos-rye-brook'
p1017
aS'https://www.yelp.com/biz/masago-oceanside'
p1018
aS'https://www.yelp.com/biz/lulu-and-po-brooklyn'
p1019
aS'https://www.yelp.com/biz/subway-ellenville-2'
p1020
aS'https://www.yelp.com/biz/taqueria-la-placita-puebla-brooklyn'
p1021
aS'https://www.yelp.com/biz/whole-foods-market-new-york-8'
p1022
aS'https://www.yelp.com/biz/queen-of-falafel-brooklyn'
p1023
aS'https://www.yelp.com/biz/vines-and-hops-riverhead'
p1024
aS'https://www.yelp.com/biz/rozzano-la-pizzeria-ronkonkoma'
p1025
aS'https://www.yelp.com/biz/turkuaz-grill-riverhead'
p1026
aS'https://www.yelp.com/biz/metal-man-restoration-mount-vernon'
p1027
aS'https://www.yelp.com/biz/pizza-barn-yonkers'
p1028
aS'https://www.yelp.com/biz/the-platform-brooklyn'
p1029
aS'https://www.yelp.com/biz/coromandel-cuisine-of-india-new-rochelle'
p1030
aS'https://www.yelp.com/biz/decostas-restaurant-yonkers'
p1031
aS'https://www.yelp.com/biz/pmg-real-estate-manhattan'
p1032
aS'https://www.yelp.com/biz/taco-bell-niagara-falls'
p1033
aS'https://www.yelp.com/biz/mana-thai-cuisine-mount-kisco'
p1034
aS'https://www.yelp.com/biz/la-nonna-shirley'
p1035
aS'https://www.yelp.com/biz/lincoln-postal-brooklyn'
p1036
aS'https://www.yelp.com/biz/fuego-coffee-roasters-rochester'
p1037
aS'https://www.yelp.com/biz/tim-hortons-buffalo-55'
p1038
aS'https://www.yelp.com/biz/my-pie-new-york'
p1039
aS'https://www.yelp.com/biz/j-and-m-beauty-salon-floral-park'
p1040
aS'https://www.yelp.com/biz/rocco-pizza-brooklyn'
p1041
aS'https://www.yelp.com/biz/union-pool-brooklyn-2'
p1042
aS'https://www.yelp.com/biz/bills-bar-and-burger-new-york'
p1043
aS'https://www.yelp.com/biz/sip-sak-new-york'
p1044
aS'https://www.yelp.com/biz/buzzys-pizza-niagara-falls'
p1045
aS'https://www.yelp.com/biz/hungry-bird-bronx-2'
p1046
aS'https://www.yelp.com/biz/sea-brooklyn-2'
p1047
aS'https://www.yelp.com/biz/mix-n-mac-middletown-5'
p1048
aS'https://www.yelp.com/biz/c-and-g-house-of-pizza-bronx'
p1049
aS'https://www.yelp.com/biz/naples-street-food-franklin-square'
p1050
aS'https://www.yelp.com/biz/hot-dog-charlies-rensselaer-2'
p1051
aS'https://www.yelp.com/biz/empire-steak-and-seafood-fishkill'
p1052
aS'https://www.yelp.com/biz/tgi-fridays-staten-island'
p1053
aS'https://www.yelp.com/biz/four-maples-fish-poughkeepsie'
p1054
aS'https://www.yelp.com/biz/809-sangria-bar-and-grill-new-york'
p1055
aS'https://www.yelp.com/biz/traif-brooklyn'
p1056
aS'https://www.yelp.com/biz/xochimilco-family-restaurant-bronx'
p1057
aS'https://www.yelp.com/biz/soul-food-kitchen-crown-heights'
p1058
aS'https://www.yelp.com/biz/chimu-express-brooklyn'
p1059
aS'https://www.yelp.com/biz/laughing-man-coffee-and-tea-new-york-3'
p1060
aS'https://www.yelp.com/biz/nonas-pizza-bronx'
p1061
aS'https://www.yelp.com/biz/martines-fine-bake-shoppe-tuckahoe-2'
p1062
aS'https://www.yelp.com/biz/georgina-restaurant-bronx'
p1063
aS'https://www.yelp.com/biz/nishida-sho-ten-new-york-2'
p1064
aS'https://www.yelp.com/biz/the-mark-restaurant-new-york-2'
p1065
aS'https://www.yelp.com/biz/broadyke-meat-market-new-york'
p1066
aS'https://www.yelp.com/biz/noco-express-lackawanna-3'
p1067
aS'https://www.yelp.com/biz/git-it-n-git-crown-heights'
p1068
aS'https://www.yelp.com/biz/sushi-na-clifton-park'
p1069
aS'https://www.yelp.com/biz/left-bank-cafe-saranac-lake'
p1070
aS'https://www.yelp.com/biz/accurate-pharmacy-brooklyn?search_key=66857'
p1071
aS'https://www.yelp.com/biz/los-nisperos-new-york'
p1072
aS'https://www.yelp.com/biz/saluggis-new-york'
p1073
aS'https://www.yelp.com/biz/belle-reve-new-york'
p1074
aS'https://www.yelp.com/biz/tres-chaves-restaurant-yonkers'
p1075
aS'https://www.yelp.com/biz/delectica-new-york'
p1076
aS'https://www.yelp.com/biz/ridge-street-auto-diagnostic-rye-brook'
p1077
aS'https://www.yelp.com/biz/despa%C3%B1a-new-york-2'
p1078
aS'https://www.yelp.com/biz/serafina-osteria-new-york'
p1079
aS'https://www.yelp.com/biz/dweebs-brooklyn'
p1080
aS'https://www.yelp.com/biz/american-waterbeds-fishkill'
p1081
aS'https://www.yelp.com/biz/starbucks-latham'
p1082
aS'https://www.yelp.com/biz/rail-explorers-adirondacks-new-york-saranac-lake-2'
p1083
aS'https://www.yelp.com/biz/hans-natural-farm-old-bethpage'
p1084
aS'https://www.yelp.com/biz/tao-new-york-2'
p1085
aS'https://www.yelp.com/biz/starbucks-middletown-7'
p1086
aS'https://www.yelp.com/biz/panera-bread-staten-island'
p1087
aS'https://www.yelp.com/biz/ladies-choice-salon-bronx'
p1088
aS'https://www.yelp.com/biz/the-good-life-diner-syracuse'
p1089
aS'https://www.yelp.com/biz/beech-tree-grill-poughkeepsie'
p1090
aS'https://www.yelp.com/biz/la-herradura-mexican-pizza-and-restaurant-new-rochelle'
p1091
aS'https://www.yelp.com/biz/buvette-new-york'
p1092
aS'https://www.yelp.com/biz/tulcimex-restaurant-bronx'
p1093
aS'https://www.yelp.com/biz/caffe-vita-coffee-roasting-brooklyn'
p1094
aS'https://www.yelp.com/biz/davinci-gourmet-market-franklin-square'
p1095
aS'https://www.yelp.com/biz/riverdale-pie-guys-bronx'
p1096
aS'https://www.yelp.com/biz/sugarburg-brooklyn'
p1097
aS'https://www.yelp.com/biz/lasagna-ristorante-new-york-8'
p1098
aS'https://www.yelp.com/biz/taqueria-santa-fe-brooklyn'
p1099
aS'https://www.yelp.com/biz/havana-alma-de-cuba-new-york'
p1100
aS'https://www.yelp.com/biz/the-point-cafe-and-bascom-catering-new-york'
p1101
aS'https://www.yelp.com/biz/galitos-restaurant-mount-vernon'
p1102
aS'https://www.yelp.com/biz/kalina-restaurant-brooklyn'
p1103
aS'https://www.yelp.com/biz/kao-soy-brooklyn'
p1104
aS'https://www.yelp.com/biz/delaney-bbq-brooklyn'
p1105
aS'https://www.yelp.com/biz/metropolis-moving-brooklyn'
p1106
aS'https://www.yelp.com/biz/villa-monte-pizzeria-and-restaurant-staten-island-4'
p1107
aS'https://www.yelp.com/biz/blimpie-westbury-3'
p1108
aS'https://www.yelp.com/biz/korzo-brooklyn?search_key=66857'
p1109
aS'https://www.yelp.com/biz/little-mo-brooklyn'
p1110
aS'https://www.yelp.com/biz/the-carlyle-restaurant-new-york-3'
p1111
aS'https://www.yelp.com/biz/victors-dolce-vita-restaurant-wappingers-falls'
p1112
aS'https://www.yelp.com/biz/g%C3%BCnter-seeger-ny-new-york'
p1113
aS'https://www.yelp.com/biz/mr-sushi-and-grill-middletown'
p1114
aS'https://www.yelp.com/biz/the-mark-hotel-bar-manhattan'
p1115
aS'https://www.yelp.com/biz/zablozkis-brooklyn-2'
p1116
aS'https://www.yelp.com/biz/barkeater-craft-brewery-lowville'
p1117
aS'https://www.yelp.com/biz/a-gusto-bedford-stuyvesant-2'
p1118
aS'https://www.yelp.com/biz/landin-mac-and-cheese-bronx'
p1119
aS'https://www.yelp.com/biz/the-loft-on-h-restaurant-and-lounge-brooklyn'
p1120
aS'https://www.yelp.com/biz/trims-pizzeria-poughkeepsie'
p1121
aS'https://www.yelp.com/biz/kofte-piyaz-brooklyn'
p1122
aS'https://www.yelp.com/biz/tend-coffee-shirley'
p1123
aS'https://www.yelp.com/biz/chandni-chowk-restaurant-east-bronx'
p1124
aS'https://www.yelp.com/biz/rocco-rochester-2'
p1125
aS'https://www.yelp.com/biz/lizzmonade-brooklyn'
p1126
aS'https://www.yelp.com/biz/the-deacons-bench-johnson-city'
p1127
aS'https://www.yelp.com/biz/harney-and-sons-soho-new-york'
p1128
aS'https://www.yelp.com/biz/kings-southern-delight-mount-vernon'
p1129
aS'https://www.yelp.com/biz/stephens-green-bar-and-restaurant-tuckahoe'
p1130
aS'https://www.yelp.com/biz/physical-culture-collective-brooklyn'
p1131
aS'https://www.yelp.com/biz/torigo-japanese-restaurant-floral-park'
p1132
aS'https://www.yelp.com/biz/home-appliance-corp-oceanside'
p1133
aS'https://www.yelp.com/biz/korean-bbq-grill-new-rochelle'
p1134
aS'https://www.yelp.com/biz/the-publik-house-ellenville'
p1135
aS'https://www.yelp.com/biz/anelle-gandelman-new-rochelle'
p1136
aS'https://www.yelp.com/biz/clinical-hypnosis-of-new-york-laurel'
p1137
aS'https://www.yelp.com/biz/potatopia-staten-island-2'
p1138
aS'https://www.yelp.com/biz/aroma-thyme-bistro-ellenville'
p1139
aS'https://www.yelp.com/biz/izumi-sushi-and-hibachi-restaurant-wappingers-falls'
p1140
aS'https://www.yelp.com/biz/sofia-wine-bar-new-york'
p1141
aS'https://www.yelp.com/biz/fiddlers-green-pub-carmel'
p1142
aS'https://www.yelp.com/biz/jreck-subs-dewitt'
p1143
aS'https://www.yelp.com/biz/the-ugly-rooster-cafe-mechanicville-2'
p1144
aS'https://www.yelp.com/biz/didi-chinese-restaurant-brooklyn'
p1145
aS'https://www.yelp.com/biz/sanpanino-new-york'
p1146
aS'https://www.yelp.com/biz/super-taco-brentwood'
p1147
aS'https://www.yelp.com/biz/jerusalem-ii-pizza-brooklyn'
p1148
aS'https://www.yelp.com/biz/lotus-garden-farmingville'
p1149
aS'https://www.yelp.com/biz/dermapunct-tattooing-east-fishkill-4'
p1150
aS'https://www.yelp.com/biz/outback-steakhouse-staten-island'
p1151
aS'https://www.yelp.com/biz/cafe-z-lowville-3'
p1152
aS'https://www.yelp.com/biz/aroma-osteria-wappingers-falls'
p1153
aS'https://www.yelp.com/biz/isla-bella-middletown'
p1154
aS'https://www.yelp.com/biz/tiki-hookah-bar-farmingville'
p1155
aS'https://www.yelp.com/biz/crafted-kup-poughkeepsie'
p1156
aS'https://www.yelp.com/biz/la-camelia-restaurant-mount-kisco'
p1157
aS'https://www.yelp.com/biz/twin-suns-deli-bushwick'
p1158
aS'https://www.yelp.com/biz/the-owl-house-rochester'
p1159
aS'https://www.yelp.com/biz/westville-chelsea-new-york-2'
p1160
aS'https://www.yelp.com/biz/djs-rustic-restaurant-saranac-lake-2'
p1161
aS'https://www.yelp.com/biz/marios-pizza-ii-bronx'
p1162
aS'https://www.yelp.com/biz/mulberry-italian-ristorante-lackawanna'
p1163
aS'https://www.yelp.com/biz/dunkin-donuts-and-baskin-robbins-old-bethpage'
p1164
aS'https://www.yelp.com/biz/polish-deli-yonkers'
p1165
aS'https://www.yelp.com/biz/caprices-by-sophie-brooklyn'
p1166
aS'https://www.yelp.com/biz/sky-fish-market-yonkers'
p1167
aS'https://www.yelp.com/biz/agra-grill-bronx'
p1168
aS'https://www.yelp.com/biz/broadway-diner-yonkers'
p1169
aS'https://www.yelp.com/biz/wendys-carmel'
p1170
aS'https://www.yelp.com/biz/la-colombe-coffee-new-york'
p1171
aS'https://www.yelp.com/biz/mahal-kita-brooklyn'
p1172
aS'https://www.yelp.com/biz/the-bier-abbey-schenectady'
p1173
aS'https://www.yelp.com/biz/campus-pizza-and-gyro-hempstead'
p1174
aS'https://www.yelp.com/biz/eyebrow-threading-galaxy-brooklyn'
p1175
aS'https://www.yelp.com/biz/richie-rich-express-bronx'
p1176
aS'https://www.yelp.com/biz/pronto-ny-pizza-truck-oceanside'
p1177
aS'https://www.yelp.com/biz/vaccaros-pizza-floral-park'
p1178
aS'https://www.yelp.com/biz/perrys-coffee-shop-bronx-2'
p1179
aS'https://www.yelp.com/biz/best-market-shirley'
p1180
aS'https://www.yelp.com/biz/lucky-7-grocery-and-deli-syracuse'
p1181
aS'https://www.yelp.com/biz/chipotle-mexican-grill-rye-brook'
p1182
aS'https://www.yelp.com/biz/saigon-cafe-poughkeepsie'
p1183
aS'https://www.yelp.com/biz/faro-brooklyn'
p1184
aS'https://www.yelp.com/biz/william-floyd-diner-shirley'
p1185
aS'https://www.yelp.com/biz/viva-tapas-bar-and-lounge-new-york'
p1186
aS'https://www.yelp.com/biz/seafood-heaven-brooklyn'
p1187
aS'https://www.yelp.com/biz/coopers-craft-and-kitchen-new-york-2'
p1188
aS'https://www.yelp.com/biz/bar-corvo-brooklyn'
p1189
aS'https://www.yelp.com/biz/salvatores-old-fashioned-pizzeria-fairport'
p1190
aS'https://www.yelp.com/biz/julies-restaurant-poughkeepsie'
p1191
aS'https://www.yelp.com/biz/rusty-nail-saranac-lake'
p1192
aS'https://www.yelp.com/biz/all-shook-up-cafe-and-juice-bar-poughkeepsie'
p1193
aS'https://www.yelp.com/biz/francos-new-york-2'
p1194
aS'https://www.yelp.com/biz/mi-tierrita-brentwood'
p1195
aS'https://www.yelp.com/biz/wagon-wheel-restaurant-niagara-falls'
p1196
aS'https://www.yelp.com/biz/tara-kitchen-schenectady'
p1197
aS'https://www.yelp.com/biz/baking-you-crazy-rensselaer-3'
p1198
aS'https://www.yelp.com/biz/montanas-trail-house-brooklyn'
p1199
aS'https://www.yelp.com/biz/t-and-f-italian-deli-and-pork-store-franklin-square'
p1200
aS'https://www.yelp.com/biz/williamsburg-thai-cuisine-brooklyn'
p1201
aS'https://www.yelp.com/biz/hampton-coffee-company-aquebogue-3'
p1202
aS'https://www.yelp.com/biz/fishermans-cove-brooklyn-4'
p1203
aS'https://www.yelp.com/biz/kingdom-island-chicken-shirley'
p1204
aS'https://www.yelp.com/biz/kings-county-imperial-brooklyn'
p1205
aS'https://www.yelp.com/biz/kobrick-coffee-new-york'
p1206
aS'https://www.yelp.com/biz/sette-e-venti-bedford-hills'
p1207
aS'https://www.yelp.com/biz/willoughby-general-brooklyn'
p1208
aS'https://www.yelp.com/biz/silvios-italian-restaurant-and-pizzeria-yonkers'
p1209
aS'https://www.yelp.com/biz/union-pizza-works-brooklyn'
p1210
aS'https://www.yelp.com/biz/artist-and-craftsman-supply-bronx'
p1211
aS'https://www.yelp.com/biz/lake-delicatessen-farmingville'
p1212
aS'https://www.yelp.com/biz/popeyes-hempstead'
p1213
aS'https://www.yelp.com/biz/broadway-diner-restaurant-yonkers'
p1214
aS'https://www.yelp.com/biz/fresco-tortillas-poughkeepsie'
p1215
aS'https://www.yelp.com/biz/brooklyn-blend-brooklyn'
p1216
aS'https://www.yelp.com/biz/dragon-house-lowville'
p1217
aS'https://www.yelp.com/biz/sons-of-thunder-new-york-4'
p1218
aS'https://www.yelp.com/biz/burrito-palace-and-grill-ronkonkoma'
p1219
aS'https://www.yelp.com/biz/i-sodi-new-york'
p1220
aS'https://www.yelp.com/biz/mr-sub-lowville'
p1221
aS'https://www.yelp.com/biz/yama-49-new-york'
p1222
aS'https://www.yelp.com/biz/kava-shteeble-new-york'
p1223
aS'https://www.yelp.com/biz/red-lantern-bicycles-brooklyn'
p1224
aS'https://www.yelp.com/biz/carnem-prime-steakhouse-brooklyn-3'
p1225
aS'https://www.yelp.com/biz/brooklyn-ice-house-brooklyn'
p1226
aS'https://www.yelp.com/biz/sakanaya-new-york'
p1227
aS'https://www.yelp.com/biz/la-cabana-restaurant-yonkers'
p1228
aS'https://www.yelp.com/biz/wykagyl-country-club-new-rochelle'
p1229
aS'https://www.yelp.com/biz/paulys-pizza-and-pasta-farmingville'
p1230
aS'https://www.yelp.com/biz/dunkin-donuts-syracuse-25'
p1231
aS'https://www.yelp.com/biz/two-door-tavern-brooklyn'
p1232
aS'https://www.yelp.com/biz/panera-bread-middletown'
p1233
aS'https://www.yelp.com/biz/celadon-thai-restaurant-latham'
p1234
aS'https://www.yelp.com/biz/bronx-uptown-seafood-market-bronx'
p1235
aS'https://www.yelp.com/biz/regis-salon-niagara-falls-2'
p1236
aS'https://www.yelp.com/biz/iroha-japanese-restaurant-new-york'
p1237
aS'https://www.yelp.com/biz/cafe-boulud-new-york-4'
p1238
aS'https://www.yelp.com/biz/oceana-new-york-2'
p1239
aS'https://www.yelp.com/biz/kennedy-fried-chicken-bronx-14'
p1240
aS'https://www.yelp.com/biz/tryon-public-house-new-york'
p1241
aS'https://www.yelp.com/biz/nancys-restaurant-floral-park'
p1242
aS'https://www.yelp.com/biz/skytown-brooklyn'
p1243
aS'https://www.yelp.com/biz/don-panchos-west-bronx-2'
p1244
aS'https://www.yelp.com/biz/bkw-by-brooklyn-winery-brooklyn'
p1245
aS'https://www.yelp.com/biz/compane-brick-oven-bistro-fairport'
p1246
aS'https://www.yelp.com/biz/covenhoven-brooklyn'
p1247
aS'https://www.yelp.com/biz/papa-johns-pizza-johnson-city-4'
p1248
aS'https://www.yelp.com/biz/bar-pleiades-new-york'
p1249
aS'https://www.yelp.com/biz/sub-king-mechanicville'
p1250
aS'https://www.yelp.com/biz/ic-brooklyn-cafe-bushwick'
p1251
aS'https://www.yelp.com/biz/the-bodega-brooklyn'
p1252
aS'https://www.yelp.com/biz/beans-and-vines-new-york'
p1253
aS'https://www.yelp.com/biz/maman-new-york-5'
p1254
aS'https://www.yelp.com/biz/crave-fishbar-new-york'
p1255
aS'https://www.yelp.com/biz/pinkerton-wine-bar-brooklyn'
p1256
aS'https://www.yelp.com/biz/tournedos-steakhouse-rochester-3'
p1257
aS'https://www.yelp.com/biz/shake-shack-brooklyn-12'
p1258
aS'https://www.yelp.com/biz/americana-diner-and-restaurant-middletown'
p1259
aS'https://www.yelp.com/biz/lopez-cafe-and-baristas-brooklyn-2?search_key=66857'
p1260
aS'https://www.yelp.com/biz/bogdanski-richard-riverhead'
p1261
aS'https://www.yelp.com/biz/tacos-el-bronco-brooklyn-2'
p1262
aS'https://www.yelp.com/biz/marc-forgione-new-york-2'
p1263
aS'https://www.yelp.com/biz/arbys-lowville-2'
p1264
aS'https://www.yelp.com/biz/farmer-in-the-deli-brooklyn'
p1265
aS'https://www.yelp.com/biz/thai-golden-carmel'
p1266
aS'https://www.yelp.com/biz/cafe-venezia-brooklyn'
p1267
aS'https://www.yelp.com/biz/macs-philly-steaks-fairport'
p1268
aS'https://www.yelp.com/biz/premium-coffee-roasters-buffalo'
p1269
aS'https://www.yelp.com/biz/la-cubanita-deli-bay-shore'
p1270
aS'https://www.yelp.com/biz/asian-one-best-grocery-ronkonkoma'
p1271
aS'https://www.yelp.com/biz/cornells-in-little-italy-schenectady'
p1272
aS'https://www.yelp.com/biz/billy-bobs-bbq-poughkeepsie'
p1273
aS'https://www.yelp.com/biz/calexico-taco-burrito-cart-brooklyn'
p1274
aS'https://www.yelp.com/biz/east-pacific-restaurant-staten-island'
p1275
aS'https://www.yelp.com/biz/kosher-bagel-hole-brooklyn-2'
p1276
aS'https://www.yelp.com/biz/buetis-delicatessen-bedford-hills'
p1277
aS'https://www.yelp.com/biz/gabys-cafe-ellenville'
p1278
aS'https://www.yelp.com/biz/little-italy-pizzeria-saranac-lake'
p1279
aS'https://www.yelp.com/biz/salsa-fresca-mexican-grill-bedford-hills'
p1280
aS'https://www.yelp.com/biz/westchester-burger-mount-kisco-2'
p1281
aS'https://www.yelp.com/biz/aquavit-new-york'
p1282
aS'https://www.yelp.com/biz/pure-food-and-drink-tuckahoe'
p1283
aS'https://www.yelp.com/biz/tweeds-restaurant-and-buffalo-bar-riverhead'
p1284
aS'https://www.yelp.com/biz/blue-moon-cafe-saranac-lake'
p1285
aS'https://www.yelp.com/biz/mega-auto-sales-bedford-hills'
p1286
aS'https://www.yelp.com/biz/crestwood-pizzeria-tuckahoe'
p1287
aS'https://www.yelp.com/biz/lady-m-cake-boutique-new-york'
p1288
aS'https://www.yelp.com/biz/next-door-shipping-brooklyn-8'
p1289
aS'https://www.yelp.com/biz/wisefish-pok%C3%A9-new-york'
p1290
aS'https://www.yelp.com/biz/acme-bar-and-pizza-rochester'
p1291
aS'https://www.yelp.com/biz/tokyo-seoul-japanese-and-korean-restaurant-de-witt'
p1292
aS'https://www.yelp.com/biz/parkette-brooklyn-brooklyn'
p1293
aS'https://www.yelp.com/biz/talisman-jewelers-old-bethpage'
p1294
aS'https://www.yelp.com/biz/patrias-ceviches-tapas-restaurant-new-rochelle'
p1295
aS'https://www.yelp.com/biz/restaurante-lechonera-and-pollo-sabroso-new-york'
p1296
aS'https://www.yelp.com/biz/evil-olive-pizza-bar-brooklyn'
p1297
aS'https://www.yelp.com/biz/sant-ambroeus-new-york'
p1298
aS'https://www.yelp.com/biz/als-famous-pizza-and-restaurant-bronx'
p1299
aS'https://www.yelp.com/biz/murphs-restaurant-franklin-square'
p1300
aS'https://www.yelp.com/biz/chimu-bistro-brooklyn'
p1301
aS'https://www.yelp.com/biz/pokito-brooklyn-2'
p1302
aS'https://www.yelp.com/biz/north-end-tavern-new-rochelle-2'
p1303
aS'https://www.yelp.com/biz/marks-texas-hots-rochester'
p1304
aS'https://www.yelp.com/biz/black-shack-burger-new-york'
p1305
aS'https://www.yelp.com/biz/trophy-bar-brooklyn'
p1306
aS'https://www.yelp.com/biz/summers-juice-and-coffee-brooklyn-2'
p1307
aS'https://www.yelp.com/biz/giacomos-pizza-and-cafe-wappingers-falls'
p1308
aS'https://www.yelp.com/biz/katonah-bedford-veterinary-center-bedford-hills'
p1309
aS'https://www.yelp.com/biz/inner-quest-yoga-and-wellness-center-saranac-lake'
p1310
aS'https://www.yelp.com/biz/ponchitos-taqueria-syracuse'
p1311
aS'https://www.yelp.com/biz/tonys-pizza-brooklyn-5'
p1312
aS'https://www.yelp.com/biz/jade-island-staten-island'
p1313
aS'https://www.yelp.com/biz/friendlys-dewitt'
p1314
aS'https://www.yelp.com/biz/javas-cafe-rochester'
p1315
aS'https://www.yelp.com/biz/t-rexx-auto-sound-new-york-2'
p1316
aS'https://www.yelp.com/biz/lukes-lobster-mobile-lobster-roll-food-truck-new-york'
p1317
aS'https://www.yelp.com/biz/pizza-stop-lake-ronkonkoma'
p1318
aS'https://www.yelp.com/biz/elevate-yoga-and-barre-studio-wappingers-falls'
p1319
aS'https://www.yelp.com/biz/cafe-z-lowville'
p1320
aS'https://www.yelp.com/biz/beer-boutique-brooklyn'
p1321
aS'https://www.yelp.com/biz/champion-bakery-bronx'
p1322
aS'https://www.yelp.com/biz/joes-pizzeria-and-restaurant-shirley'
p1323
a.