ccopy_reg
_reconstructor
p0
(cpandas.core.series
Series
p1
c__builtin__
object
p2
Ntp3
Rp4
(dp5
S'_metadata'
p6
(lp7
S'name'
p8
asS'_data'
p9
g0
(cpandas.core.internals
SingleBlockManager
p10
g2
Ntp11
Rp12
((lp13
cpandas.indexes.base
_new_Index
p14
(cpandas.indexes.base
Index
p15
(dp16
S'data'
p17
cnumpy.core.multiarray
_reconstruct
p18
(cnumpy
ndarray
p19
(I0
tp20
S'b'
p21
tp22
Rp23
(I1
(I6
tp24
cnumpy
dtype
p25
(S'O8'
p26
I0
I1
tp27
Rp28
(I3
S'|'
p29
NNNI-1
I-1
I63
tp30
bI00
(lp31
S'dow_1'
p32
aS'dow_2'
p33
aS'dow_3'
p34
aS'dow_4'
p35
aS'dow_5'
p36
aS'dow_6'
p37
atp38
bsg8
Nstp39
Rp40
a(lp41
g18
(g19
(I0
tp42
g21
tp43
Rp44
(I1
(I6
tp45
g25
(S'u1'
p46
I0
I1
tp47
Rp48
(I3
S'|'
p49
NNNI-1
I-1
I0
tp50
bI00
S'\x00\x01\x00\x00\x00\x00'
p51
tp52
ba(lp53
g14
(g15
(dp54
g17
g18
(g19
(I0
tp55
g21
tp56
Rp57
(I1
(I6
tp58
g28
I00
(lp59
g32
ag33
ag34
ag35
ag36
ag37
atp60
bsg8
Nstp61
Rp62
a(dp63
S'0.14.1'
p64
(dp65
S'axes'
p66
g13
sS'blocks'
p67
(lp68
(dp69
S'mgr_locs'
p70
c__builtin__
slice
p71
(I0
I6
I1
tp72
Rp73
sS'values'
p74
g44
sasstp75
bsS'_typ'
p76
S'series'
p77
sg8
cnumpy.core.multiarray
scalar
p78
(g25
(S'i8'
p79
I0
I1
tp80
Rp81
(I3
S'<'
p82
NNNI-1
I-1
I0
tp83
bS'\x00\x00\x00\x00\x00\x00\x00\x00'
p84
tp85
Rp86
sb.