ccopy_reg
_reconstructor
p0
(cpandas.core.series
Series
p1
c__builtin__
object
p2
Ntp3
Rp4
(dp5
S'_metadata'
p6
(lp7
S'name'
p8
asS'_data'
p9
g0
(cpandas.core.internals
SingleBlockManager
p10
g2
Ntp11
Rp12
((lp13
cpandas.indexes.base
_new_Index
p14
(cpandas.indexes.base
Index
p15
(dp16
S'data'
p17
cnumpy.core.multiarray
_reconstruct
p18
(cnumpy
ndarray
p19
(I0
tp20
S'b'
p21
tp22
Rp23
(I1
(I23
tp24
cnumpy
dtype
p25
(S'O8'
p26
I0
I1
tp27
Rp28
(I3
S'|'
p29
NNNI-1
I-1
I63
tp30
bI00
(lp31
S'hour_1'
p32
aS'hour_2'
p33
aS'hour_3'
p34
aS'hour_4'
p35
aS'hour_5'
p36
aS'hour_6'
p37
aS'hour_7'
p38
aS'hour_8'
p39
aS'hour_9'
p40
aS'hour_10'
p41
aS'hour_11'
p42
aS'hour_12'
p43
aS'hour_13'
p44
aS'hour_14'
p45
aS'hour_15'
p46
aS'hour_16'
p47
aS'hour_17'
p48
aS'hour_18'
p49
aS'hour_19'
p50
aS'hour_20'
p51
aS'hour_21'
p52
aS'hour_22'
p53
aS'hour_23'
p54
atp55
bsg8
Nstp56
Rp57
a(lp58
g18
(g19
(I0
tp59
g21
tp60
Rp61
(I1
(I23
tp62
g25
(S'u1'
p63
I0
I1
tp64
Rp65
(I3
S'|'
p66
NNNI-1
I-1
I0
tp67
bI00
S'\x00\x00\x00\x00\x00\x00\x00\x00\x00\x00\x00\x00\x00\x00\x00\x00\x00\x00\x00\x00\x00\x00\x00'
p68
tp69
ba(lp70
g14
(g15
(dp71
g17
g18
(g19
(I0
tp72
g21
tp73
Rp74
(I1
(I23
tp75
g28
I00
(lp76
g32
ag33
ag34
ag35
ag36
ag37
ag38
ag39
ag40
ag41
ag42
ag43
ag44
ag45
ag46
ag47
ag48
ag49
ag50
ag51
ag52
ag53
ag54
atp77
bsg8
Nstp78
Rp79
a(dp80
S'0.14.1'
p81
(dp82
S'axes'
p83
g13
sS'blocks'
p84
(lp85
(dp86
S'mgr_locs'
p87
c__builtin__
slice
p88
(I0
I23
I1
tp89
Rp90
sS'values'
p91
g61
sasstp92
bsS'_typ'
p93
S'series'
p94
sg8
cnumpy.core.multiarray
scalar
p95
(g25
(S'i8'
p96
I0
I1
tp97
Rp98
(I3
S'<'
p99
NNNI-1
I-1
I0
tp100
bS'\x00\x00\x00\x00\x00\x00\x00\x00'
p101
tp102
Rp103
sb.