ccopy_reg
_reconstructor
p0
(cpandas.core.series
Series
p1
c__builtin__
object
p2
Ntp3
Rp4
(dp5
S'_metadata'
p6
(lp7
S'name'
p8
asS'_data'
p9
g0
(cpandas.core.internals
SingleBlockManager
p10
g2
Ntp11
Rp12
((lp13
cpandas.indexes.base
_new_Index
p14
(cpandas.indexes.base
Index
p15
(dp16
S'data'
p17
cnumpy.core.multiarray
_reconstruct
p18
(cnumpy
ndarray
p19
(I0
tp20
S'b'
p21
tp22
Rp23
(I1
(I178
tp24
cnumpy
dtype
p25
(S'O8'
p26
I0
I1
tp27
Rp28
(I3
S'|'
p29
NNNI-1
I-1
I63
tp30
bI00
(lp31
S'Zip_10002'
p32
aS'Zip_10003'
p33
aS'Zip_10004'
p34
aS'Zip_10005'
p35
aS'Zip_10006'
p36
aS'Zip_10007'
p37
aS'Zip_10009'
p38
aS'Zip_10010'
p39
aS'Zip_10011'
p40
aS'Zip_10012'
p41
aS'Zip_10013'
p42
aS'Zip_10014'
p43
aS'Zip_10016'
p44
aS'Zip_10017'
p45
aS'Zip_10018'
p46
aS'Zip_10019'
p47
aS'Zip_10020'
p48
aS'Zip_10021'
p49
aS'Zip_10022'
p50
aS'Zip_10023'
p51
aS'Zip_10024'
p52
aS'Zip_10025'
p53
aS'Zip_10026'
p54
aS'Zip_10027'
p55
aS'Zip_10028'
p56
aS'Zip_10029'
p57
aS'Zip_10030'
p58
aS'Zip_10031'
p59
aS'Zip_10032'
p60
aS'Zip_10033'
p61
aS'Zip_10034'
p62
aS'Zip_10035'
p63
aS'Zip_10036'
p64
aS'Zip_10037'
p65
aS'Zip_10038'
p66
aS'Zip_10039'
p67
aS'Zip_10040'
p68
aS'Zip_10044'
p69
aS'Zip_10048'
p70
aS'Zip_10065'
p71
aS'Zip_10069'
p72
aS'Zip_10075'
p73
aS'Zip_10111'
p74
aS'Zip_10115'
p75
aS'Zip_10128'
p76
aS'Zip_10280'
p77
aS'Zip_10281'
p78
aS'Zip_10282'
p79
aS'Zip_10301'
p80
aS'Zip_10303'
p81
aS'Zip_10304'
p82
aS'Zip_10305'
p83
aS'Zip_10306'
p84
aS'Zip_10307'
p85
aS'Zip_10310'
p86
aS'Zip_10312'
p87
aS'Zip_10314'
p88
aS'Zip_10451'
p89
aS'Zip_10452'
p90
aS'Zip_10453'
p91
aS'Zip_10454'
p92
aS'Zip_10455'
p93
aS'Zip_10456'
p94
aS'Zip_10457'
p95
aS'Zip_10458'
p96
aS'Zip_10459'
p97
aS'Zip_10460'
p98
aS'Zip_10461'
p99
aS'Zip_10462'
p100
aS'Zip_10465'
p101
aS'Zip_10466'
p102
aS'Zip_10467'
p103
aS'Zip_10468'
p104
aS'Zip_10469'
p105
aS'Zip_10470'
p106
aS'Zip_10471'
p107
aS'Zip_10472'
p108
aS'Zip_10473'
p109
aS'Zip_10474'
p110
aS'Zip_10475'
p111
aS'Zip_11001'
p112
aS'Zip_11004'
p113
aS'Zip_11005'
p114
aS'Zip_11101'
p115
aS'Zip_11102'
p116
aS'Zip_11103'
p117
aS'Zip_11104'
p118
aS'Zip_11105'
p119
aS'Zip_11106'
p120
aS'Zip_11109'
p121
aS'Zip_11201'
p122
aS'Zip_11203'
p123
aS'Zip_11204'
p124
aS'Zip_11205'
p125
aS'Zip_11206'
p126
aS'Zip_11207'
p127
aS'Zip_11208'
p128
aS'Zip_11209'
p129
aS'Zip_11210'
p130
aS'Zip_11211'
p131
aS'Zip_11212'
p132
aS'Zip_11213'
p133
aS'Zip_11214'
p134
aS'Zip_11215'
p135
aS'Zip_11216'
p136
aS'Zip_11217'
p137
aS'Zip_11218'
p138
aS'Zip_11219'
p139
aS'Zip_11220'
p140
aS'Zip_11221'
p141
aS'Zip_11222'
p142
aS'Zip_11223'
p143
aS'Zip_11224'
p144
aS'Zip_11225'
p145
aS'Zip_11226'
p146
aS'Zip_11228'
p147
aS'Zip_11229'
p148
aS'Zip_11230'
p149
aS'Zip_11231'
p150
aS'Zip_11232'
p151
aS'Zip_11233'
p152
aS'Zip_11234'
p153
aS'Zip_11235'
p154
aS'Zip_11236'
p155
aS'Zip_11237'
p156
aS'Zip_11238'
p157
aS'Zip_11239'
p158
aS'Zip_11251'
p159
aS'Zip_11354'
p160
aS'Zip_11355'
p161
aS'Zip_11356'
p162
aS'Zip_11357'
p163
aS'Zip_11358'
p164
aS'Zip_11360'
p165
aS'Zip_11361'
p166
aS'Zip_11362'
p167
aS'Zip_11363'
p168
aS'Zip_11364'
p169
aS'Zip_11365'
p170
aS'Zip_11366'
p171
aS'Zip_11367'
p172
aS'Zip_11368'
p173
aS'Zip_11369'
p174
aS'Zip_11371'
p175
aS'Zip_11372'
p176
aS'Zip_11373'
p177
aS'Zip_11374'
p178
aS'Zip_11375'
p179
aS'Zip_11377'
p180
aS'Zip_11378'
p181
aS'Zip_11379'
p182
aS'Zip_11385'
p183
aS'Zip_11411'
p184
aS'Zip_11412'
p185
aS'Zip_11413'
p186
aS'Zip_11414'
p187
aS'Zip_11415'
p188
aS'Zip_11416'
p189
aS'Zip_11417'
p190
aS'Zip_11418'
p191
aS'Zip_11419'
p192
aS'Zip_11420'
p193
aS'Zip_11421'
p194
aS'Zip_11422'
p195
aS'Zip_11423'
p196
aS'Zip_11426'
p197
aS'Zip_11427'
p198
aS'Zip_11428'
p199
aS'Zip_11429'
p200
aS'Zip_11430'
p201
aS'Zip_11432'
p202
aS'Zip_11433'
p203
aS'Zip_11434'
p204
aS'Zip_11435'
p205
aS'Zip_11436'
p206
aS'Zip_11691'
p207
aS'Zip_11694'
p208
aS'Zip_11697'
p209
atp210
bsg8
Nstp211
Rp212
a(lp213
g18
(g19
(I0
tp214
g21
tp215
Rp216
(I1
(I178
tp217
g25
(S'u1'
p218
I0
I1
tp219
Rp220
(I3
S'|'
p221
NNNI-1
I-1
I0
tp222
bI00
S'\x00\x01\x00\x00\x00\x00\x00\x00\x00\x00\x00\x00\x00\x00\x00\x00\x00\x00\x00\x00\x00\x00\x00\x00\x00\x00\x00\x00\x00\x00\x00\x00\x00\x00\x00\x00\x00\x00\x00\x00\x00\x00\x00\x00\x00\x00\x00\x00\x00\x00\x00\x00\x00\x00\x00\x00\x00\x00\x00\x00\x00\x00\x00\x00\x00\x00\x00\x00\x00\x00\x00\x00\x00\x00\x00\x00\x00\x00\x00\x00\x00\x00\x00\x00\x00\x00\x00\x00\x00\x00\x00\x00\x00\x00\x00\x00\x00\x00\x00\x00\x00\x00\x00\x00\x00\x00\x00\x00\x00\x00\x00\x00\x00\x00\x00\x00\x00\x00\x00\x00\x00\x00\x00\x00\x00\x00\x00\x00\x00\x00\x00\x00\x00\x00\x00\x00\x00\x00\x00\x00\x00\x00\x00\x00\x00\x00\x00\x00\x00\x00\x00\x00\x00\x00\x00\x00\x00\x00\x00\x00\x00\x00\x00\x00\x00\x00\x00\x00\x00\x00\x00\x00\x00\x00\x00\x00\x00\x00'
p223
tp224
ba(lp225
g14
(g15
(dp226
g17
g18
(g19
(I0
tp227
g21
tp228
Rp229
(I1
(I178
tp230
g28
I00
(lp231
g32
ag33
ag34
ag35
ag36
ag37
ag38
ag39
ag40
ag41
ag42
ag43
ag44
ag45
ag46
ag47
ag48
ag49
ag50
ag51
ag52
ag53
ag54
ag55
ag56
ag57
ag58
ag59
ag60
ag61
ag62
ag63
ag64
ag65
ag66
ag67
ag68
ag69
ag70
ag71
ag72
ag73
ag74
ag75
ag76
ag77
ag78
ag79
ag80
ag81
ag82
ag83
ag84
ag85
ag86
ag87
ag88
ag89
ag90
ag91
ag92
ag93
ag94
ag95
ag96
ag97
ag98
ag99
ag100
ag101
ag102
ag103
ag104
ag105
ag106
ag107
ag108
ag109
ag110
ag111
ag112
ag113
ag114
ag115
ag116
ag117
ag118
ag119
ag120
ag121
ag122
ag123
ag124
ag125
ag126
ag127
ag128
ag129
ag130
ag131
ag132
ag133
ag134
ag135
ag136
ag137
ag138
ag139
ag140
ag141
ag142
ag143
ag144
ag145
ag146
ag147
ag148
ag149
ag150
ag151
ag152
ag153
ag154
ag155
ag156
ag157
ag158
ag159
ag160
ag161
ag162
ag163
ag164
ag165
ag166
ag167
ag168
ag169
ag170
ag171
ag172
ag173
ag174
ag175
ag176
ag177
ag178
ag179
ag180
ag181
ag182
ag183
ag184
ag185
ag186
ag187
ag188
ag189
ag190
ag191
ag192
ag193
ag194
ag195
ag196
ag197
ag198
ag199
ag200
ag201
ag202
ag203
ag204
ag205
ag206
ag207
ag208
ag209
atp232
bsg8
Nstp233
Rp234
a(dp235
S'0.14.1'
p236
(dp237
S'axes'
p238
g13
sS'blocks'
p239
(lp240
(dp241
S'mgr_locs'
p242
c__builtin__
slice
p243
(I0
I178
I1
tp244
Rp245
sS'values'
p246
g216
sasstp247
bsS'_typ'
p248
S'series'
p249
sg8
cnumpy.core.multiarray
scalar
p250
(g25
(S'i8'
p251
I0
I1
tp252
Rp253
(I3
S'<'
p254
NNNI-1
I-1
I0
tp255
bS'\x00\x00\x00\x00\x00\x00\x00\x00'
p256
tp257
Rp258
sb.